(dp0
S'monterey'
p1
(dp2
S'city'
p3
S'monterey'
p4
sS'w4w'
p5
I0
sS'origcity'
p6
g1
sS'lon'
p7
S'-121.908915'
p8
sS'm4w'
p9
I148
sS'state'
p10
S'CA'
p11
sS'm4m'
p12
I263
sS'lat'
p13
S'36.606225'
p14
sS'w4m'
p15
I0
ssS'cincinnati'
p16
(dp17
g3
S'cincinnati'
p18
sS'w4w'
p19
I69
sg6
g16
sg7
S'-92.953118'
p20
sS'm4w'
p21
I765
sg10
S'IA'
p22
sS'm4m'
p23
I1429
sg13
S'40.626921'
p24
sS'w4m'
p25
I216
ssS'merced'
p26
(dp27
g3
S'merced'
p28
sS'w4w'
p29
I39
sg6
g26
sg7
S'-120.509750'
p30
sS'm4w'
p31
I39
sg10
S'CA'
p32
sS'm4m'
p33
I39
sg13
S'37.412623'
p34
sS'w4m'
p35
I0
ssS'jackson, MI'
p36
(dp37
g3
S'jackson'
p38
sS'w4w'
p39
I70
sg6
g36
sg7
S'-84.213755'
p40
sS'm4w'
p41
I55
sg10
S'MI'
p42
sS'm4m'
p43
I34
sg13
S'42.252847'
p44
sS'w4m'
p45
I10
ssS'fort myers'
p46
(dp47
g3
S'fort myers'
p48
sS'w4w'
p49
I43
sg6
g46
sg7
S'-81.94861'
p50
sS'm4w'
p51
I522
sg10
S'FL'
p52
sS'm4m'
p53
I661
sg13
S'26.552895'
p54
sS'w4m'
p55
I78
ssS'the thumb'
p56
(dp57
S'm4w'
p58
I15
sg6
g56
sS'm4m'
p59
I4
sS'w4m'
p60
I6
sS'w4w'
p61
I29
ssS'athens, GA'
p62
(dp63
g3
S'athens'
p64
sS'w4w'
p65
I17
sg6
g62
sg7
S'-83.38908'
p66
sS'm4w'
p67
I124
sg10
S'GA'
p68
sS'm4m'
p69
I142
sg13
S'33.944339'
p70
sS'w4m'
p71
I27
ssS'roanoke'
p72
(dp73
g3
S'roanoke'
p74
sS'w4w'
p75
I40
sg6
g72
sg7
S'-97.116282'
p76
sS'm4w'
p77
I109
sg10
S'TX'
p78
sS'm4m'
p79
I38
sg13
S'33.20743'
p80
sS'w4m'
p81
I0
ssS'bismarck'
p82
(dp83
g3
S'bismarck'
p84
sS'w4w'
p85
I16
sg6
g82
sg7
S'-93.11742'
p86
sS'm4w'
p87
I32
sg10
S'AR'
p88
sS'm4m'
p89
I53
sg13
S'34.276538'
p90
sS'w4m'
p91
I33
ssS'wyoming'
p92
(dp93
g3
S'wyoming'
p94
sS'w4w'
p95
I57
sg6
g92
sg7
S'-89.788462'
p96
sS'm4w'
p97
I136
sg10
S'IL'
p98
sS'm4m'
p99
I99
sg13
S'41.085606'
p100
sS'w4m'
p101
I32
ssS'appleton'
p102
(dp103
g3
S'appleton'
p104
sS'w4w'
p105
I54
sg6
g102
sg7
S'-121.312852'
p106
sS'm4w'
p107
I250
sg10
S'WA'
p108
sS'm4m'
p109
I62
sg13
S'45.850437'
p110
sS'w4m'
p111
I88
ssS'tulsa'
p112
(dp113
g3
S'tulsa'
p114
sS'w4w'
p115
I49
sg6
g112
sg7
S'-96.029725'
p116
sS'm4w'
p117
I557
sg10
S'OK'
p118
sS'm4m'
p119
I353
sg13
S'36.139826'
p120
sS'w4m'
p121
I120
ssS'wausau'
p122
(dp123
g3
S'wausau'
p124
sS'w4w'
p125
I63
sg6
g122
sg7
S'-89.531804'
p126
sS'm4w'
p127
I85
sg10
S'WI'
p128
sS'm4m'
p129
I21
sg13
S'44.952863'
p130
sS'w4m'
p131
I41
ssS'rapid city'
p132
(dp133
g3
S'rapid city'
p134
sS'w4w'
p135
I0
sg6
g132
sg7
S'-103.317149'
p136
sS'm4w'
p137
I38
sg10
S'SD'
p138
sS'm4m'
p139
I0
sg13
S'44.076106'
p140
sS'w4m'
p141
I38
ssS'rochester, NY'
p142
(dp143
g3
S'rochester'
p144
sS'w4w'
p145
I36
sg6
g142
sg7
S'-77.684264'
p146
sS'm4w'
p147
I492
sg10
S'NY'
p148
sS'm4m'
p149
I641
sg13
S'43.286024'
p150
sS'w4m'
p151
I110
ssS'muskegon'
p152
(dp153
g3
S'muskegon'
p154
sS'w4w'
p155
I38
sg6
g152
sg7
S'-86.278985'
p156
sS'm4w'
p157
I38
sg10
S'MI'
p158
sS'm4m'
p159
I0
sg13
S'43.295208'
p160
sS'w4m'
p161
I0
ssS'syracuse'
p162
(dp163
g3
S'syracuse'
p164
sS'w4w'
p165
I57
sg6
g162
sg7
S'-112.079415'
p166
sS'm4w'
p167
I220
sg10
S'UT'
p168
sS'm4m'
p169
I244
sg13
S'41.096293'
p170
sS'w4m'
p171
I58
ssS'tri'
p172
(dp173
g6
g172
sS'm4m'
p174
I46
sS'w4w'
p175
I60
sS'w4m'
p176
I42
sS'm4w'
p177
I100
ssS'pueblo'
p178
(dp179
g3
S'pueblo'
p180
sS'w4w'
p181
I0
sg6
g178
sg7
S'-104.552299'
p182
sS'm4w'
p183
I76
sg10
S'CO'
p184
sS'm4m'
p185
I79
sg13
S'38.128626'
p186
sS'w4m'
p187
I0
ssS'ames, IA'
p188
(dp189
g3
S'ames'
p190
sS'w4w'
p191
I45
sg6
g188
sg7
S'-93.647237'
p192
sS'm4w'
p193
I36
sg10
S'IA'
p194
sS'm4m'
p195
I25
sg13
S'42.045748'
p196
sS'w4m'
p197
I14
ssS'hawaii'
p198
(dp199
S'm4w'
p200
I652
sg6
g198
sS'm4m'
p201
I1827
sS'w4m'
p202
I163
sS'w4w'
p203
I69
ssS'albany, NY'
p204
(dp205
g3
S'albany'
p206
sS'w4w'
p207
I56
sg6
g204
sg7
S'-73.970812'
p208
sS'm4w'
p209
I417
sg10
S'NY'
p210
sS'm4m'
p211
I618
sg13
S'42.614852'
p212
sS'w4m'
p213
I98
ssS'kenosha'
p214
(dp215
g3
S'kenosha'
p216
sS'w4w'
p217
I5
sg6
g214
sg7
S'-87.948079'
p218
sS'm4w'
p219
I83
sg10
S'WI'
p220
sS'm4m'
p221
I70
sg13
S'42.618427'
p222
sS'w4m'
p223
I28
ssS'bozeman'
p224
(dp225
g3
S'bozeman'
p226
sS'w4w'
p227
I26
sg6
g224
sg7
S'-110.901280'
p228
sS'm4w'
p229
I60
sg10
S'MT'
p230
sS'm4m'
p231
I56
sg13
S'45.627982'
p232
sS'w4m'
p233
I40
ssS'san angelo'
p234
(dp235
g3
S'san angelo'
p236
sS'w4w'
p237
I0
sg6
g234
sg7
S'-100.689590'
p238
sS'm4w'
p239
I37
sg10
S'TX'
p240
sS'm4m'
p241
I0
sg13
S'31.39577'
p242
sS'w4m'
p243
I0
ssS'mattoon'
p244
(dp245
g3
S'mattoon'
p246
sS'w4w'
p247
I41
sg6
g244
sg7
S'-88.247012'
p248
sS'm4w'
p249
I0
sg10
S'IL'
p250
sS'm4m'
p251
I0
sg13
S'39.505679'
p252
sS'w4m'
p253
I0
ssS'western mass'
p254
(dp255
S'w4m'
p256
I74
sg6
g254
sS'w4w'
p257
I41
sS'm4w'
p258
I310
sS'm4m'
p259
I465
ssS'augusta'
p260
(dp261
g3
S'augusta'
p262
sS'w4w'
p263
I33
sg6
g260
sg7
S'-91.372792'
p264
sS'm4w'
p265
I162
sg10
S'AR'
p266
sS'm4m'
p267
I80
sg13
S'35.207566'
p268
sS'w4m'
p269
I43
ssS'southwest TX'
p270
(dp271
g3
S'southwest'
p272
sS'w4w'
p273
I20
sg6
S'southwest KS'
p274
sg7
S'-79.439801'
p275
sS'm4w'
p276
I16
sg10
S'PA'
p277
sS'm4m'
p278
I13
sg13
S'40.360223'
p279
sS'w4m'
p280
I24
ssS'chicago'
p281
(dp282
g3
S'chicago'
p283
sS'w4w'
p284
I55
sg6
g281
sg7
S'-87.68732'
p285
sS'm4w'
p286
I826
sg10
S'IL'
p287
sS'm4m'
p288
I1934
sg13
S'41.811929'
p289
sS'w4m'
p290
I148
ssS'greenville'
p291
(dp292
g3
S'greenville'
p293
sS'w4w'
p294
I48
sg6
g291
sg7
S'-120.878840'
p295
sS'm4w'
p296
I340
sg10
S'CA'
p297
sS'm4m'
p298
I480
sg13
S'40.124832'
p299
sS'w4m'
p300
I108
ssS'harrisonburg'
p301
(dp302
g3
S'harrisonburg'
p303
sS'w4w'
p304
I39
sg6
g301
sg7
S'-91.890463'
p305
sS'm4w'
p306
I77
sg10
S'LA'
p307
sS'm4m'
p308
I65
sg13
S'31.746835'
p309
sS'w4m'
p310
I17
ssS'sarasota'
p311
(dp312
g3
S'sarasota'
p313
sS'w4w'
p314
I0
sg6
g311
sg7
S'-82.528488'
p315
sS'm4w'
p316
I295
sg10
S'FL'
p317
sS'm4m'
p318
I256
sg13
S'27.331628'
p319
sS'w4m'
p320
I38
ssS'farmington, NM'
p321
(dp322
g3
S'farmington'
p323
sS'w4w'
p324
I73
sg6
g321
sg7
S'-108.069250'
p325
sS'm4w'
p326
I28
sg10
S'NM'
p327
sS'm4m'
p328
I18
sg13
S'36.774472'
p329
sS'w4m'
p330
I17
ssS'eastern KY'
p331
(dp332
g3
S'eastern'
p333
sS'w4w'
p334
I19
sg6
S'eastern CO'
p335
sg7
S'-82.818388'
p336
sS'm4w'
p337
I138
sg10
S'KY'
p338
sS'm4m'
p339
I193
sg13
S'37.512564'
p340
sS'w4m'
p341
I6
ssS'morgantown'
p342
(dp343
g3
S'morgantown'
p344
sS'w4w'
p345
I38
sg6
g342
sg7
S'-86.267561'
p346
sS'm4w'
p347
I38
sg10
S'IN'
p348
sS'm4m'
p349
I37
sg13
S'39.244566'
p350
sS'w4m'
p351
I0
ssS'bakersfield'
p352
(dp353
g3
S'bakersfield'
p354
sS'w4w'
p355
I45
sg6
g352
sg7
S'-118.905173'
p356
sS'm4w'
p357
I213
sg10
S'CA'
p358
sS'm4m'
p359
I292
sg13
S'35.294405'
p360
sS'w4m'
p361
I48
ssS'spokane'
p362
(dp363
g3
S'spokane'
p364
sS'w4w'
p365
I57
sg6
g362
sg7
S'-117.431742'
p366
sS'm4w'
p367
I437
sg10
S'WA'
p368
sS'm4m'
p369
I220
sg13
S'47.653568'
p370
sS'w4m'
p371
I126
ssS'great falls'
p372
(dp373
g3
S'great falls'
p374
sS'w4w'
p375
I25
sg6
g372
sg7
S'-111.239305'
p376
sS'm4w'
p377
I35
sg10
S'MT'
p378
sS'm4m'
p379
I67
sg13
S'47.619998'
p380
sS'w4m'
p381
I42
ssS'brownsville'
p382
(dp383
g3
S'brownsville'
p384
sS'w4w'
p385
I68
sg6
g382
sg7
S'-122.942438'
p386
sS'm4w'
p387
I69
sg10
S'OR'
p388
sS'm4m'
p389
I54
sg13
S'44.378703'
p390
sS'w4m'
p391
I26
ssS'stockton'
p392
(dp393
g3
S'stockton'
p394
sS'w4w'
p395
I25
sg6
g392
sg7
S'-121.253872'
p396
sS'm4w'
p397
I177
sg10
S'CA'
p398
sS'm4m'
p399
I359
sg13
S'37.889849'
p400
sS'w4m'
p401
I32
ssS'cedar rapids'
p402
(dp403
g3
S'cedar rapids'
p404
sS'w4w'
p405
I32
sg6
g402
sg7
S'-98.150139'
p406
sS'm4w'
p407
I72
sg10
S'NE'
p408
sS'm4m'
p409
I56
sg13
S'41.558087'
p410
sS'w4m'
p411
I19
ssS'lima'
p412
(dp413
g3
S'lima'
p414
sS'w4w'
p415
I43
sg6
g412
sg7
S'-91.387504'
p416
sS'm4w'
p417
I115
sg10
S'IL'
p418
sS'm4m'
p419
I21
sg13
S'40.165558'
p420
sS'w4m'
p421
I35
ssS'tampa bay'
p422
(dp423
S'm4w'
p424
I1335
sg6
g422
sS'm4m'
p425
I2268
sS'w4m'
p426
I245
sS'w4w'
p427
I150
ssS'lake city'
p428
(dp429
g3
S'lake city'
p430
sS'w4w'
p431
I38
sg6
g428
sg7
S'-120.179132'
p432
sS'm4w'
p433
I0
sg10
S'CA'
p434
sS'm4m'
p435
I0
sg13
S'41.763674'
p436
sS'w4m'
p437
I0
ssS'provo'
p438
(dp439
g3
S'provo'
p440
sS'w4w'
p441
I39
sg6
g438
sg7
S'-111.635353'
p442
sS'm4w'
p443
I158
sg10
S'UT'
p444
sS'm4m'
p445
I472
sg13
S'40.218905'
p446
sS'w4m'
p447
I0
ssS'imperial co'
p448
(dp449
g3
S'imperial'
p450
sg6
g448
sg7
S'-115.640538'
p451
sS'm4w'
p452
I20
sg10
S'CA'
p453
sS'm4m'
p454
I31
sg13
S'33.008903'
p455
sS'w4m'
p456
I8
ssS'corvallis'
p457
(dp458
g3
S'corvallis'
p459
sS'w4w'
p460
I47
sg6
g457
sg7
S'-123.445033'
p461
sS'm4w'
p462
I79
sg10
S'OR'
p463
sS'm4m'
p464
I23
sg13
S'44.49893'
p465
sS'w4m'
p466
I20
ssS'the shoals'
p467
(dp468
S'm4w'
p469
I33
sg6
g467
sS'm4m'
p470
I9
sS'w4m'
p471
I10
sS'w4w'
p472
I21
ssS'wenatchee'
p473
(dp474
g3
S'wenatchee'
p475
sS'w4w'
p476
I19
sg6
g473
sg7
S'-120.520211'
p477
sS'm4w'
p478
I54
sg10
S'WA'
p479
sS'm4m'
p480
I18
sg13
S'47.905787'
p481
sS'w4m'
p482
I23
ssS'asheville'
p483
(dp484
g3
S'asheville'
p485
sS'w4w'
p486
I52
sg6
g483
sg7
S'-82.528558'
p487
sS'm4w'
p488
I246
sg10
S'NC'
p489
sS'm4m'
p490
I151
sg13
S'35.620335'
p491
sS'w4m'
p492
I53
ssS'northeast SD'
p493
(dp494
g6
g493
sS'm4m'
p495
I38
sS'w4w'
p496
I0
sS'm4w'
p497
I0
sS'w4m'
p498
I0
ssS'mansfield'
p499
(dp500
g3
S'mansfield'
p501
sS'w4w'
p502
I0
sg6
g499
sg7
S'-119.525987'
p503
sS'm4w'
p504
I74
sg10
S'WA'
p505
sS'm4m'
p506
I0
sg13
S'47.847735'
p507
sS'w4m'
p508
I0
ssS'glens falls'
p509
(dp510
g3
S'glens falls'
p511
sS'w4w'
p512
I76
sg6
g509
sg7
S'-73.669061'
p513
sS'm4w'
p514
I44
sg10
S'NY'
p515
sS'm4m'
p516
I20
sg13
S'43.31888'
p517
sS'w4m'
p518
I12
ssS'rockford'
p519
(dp520
g3
S'rockford'
p521
sS'w4w'
p522
I0
sg6
g519
sg7
S'-117.255465'
p523
sS'm4w'
p524
I113
sg10
S'WA'
p525
sS'm4m'
p526
I38
sg13
S'47.672177'
p527
sS'w4m'
p528
I39
ssS'visalia'
p529
(dp530
g3
S'visalia'
p531
sS'w4w'
p532
I42
sg6
g529
sg7
S'-119.228324'
p533
sS'm4w'
p534
I82
sg10
S'CA'
p535
sS'm4m'
p536
I142
sg13
S'36.19457'
p537
sS'w4m'
p538
I19
ssS'southwest MN'
p539
g271
sS'southwest MI'
p540
g271
sS'blacksburg'
p541
(dp542
g3
S'blacksburg'
p543
sS'w4w'
p544
I38
sg6
g541
sg7
S'-81.494193'
p545
sS'm4w'
p546
I38
sg10
S'SC'
p547
sS'm4m'
p548
I0
sg13
S'35.10953'
p549
sS'w4m'
p550
I0
ssS'ann arbor'
p551
(dp552
g3
S'ann arbor'
p553
sS'w4w'
p554
I25
sg6
g551
sg7
S'-83.836571'
p555
sS'm4w'
p556
I177
sg10
S'MI'
p557
sS'm4m'
p558
I274
sg13
S'42.253502'
p559
sS'w4m'
p560
I57
ssS'new hampshire'
p561
(dp562
g3
S'new hampshire'
p563
sS'w4w'
p564
I0
sg6
g561
sg7
S'-83.950093'
p565
sS'm4w'
p566
I713
sg10
S'OH'
p567
sS'm4m'
p568
I705
sg13
S'40.549772'
p569
sS'w4m'
p570
I110
ssS'southwest MS'
p571
g271
sS'texarkana'
p572
(dp573
g3
S'texarkana'
p574
sS'w4w'
p575
I44
sg6
g572
sg7
S'-94.39495'
p576
sS'm4w'
p577
I24
sg10
S'TX'
p578
sS'm4m'
p579
I31
sg13
S'33.476552'
p580
sS'w4m'
p581
I8
ssS'southeast KS'
p582
(dp583
S'w4m'
p584
I13
sg6
g582
sS'm4m'
p585
I11
sS'm4w'
p586
I34
sS'w4w'
p587
I48
ssS'show low'
p588
(dp589
g3
S'show low'
p590
sS'w4w'
p591
I0
sg6
g588
sg7
S'-110.035185'
p592
sS'm4w'
p593
I0
sg10
S'AZ'
p594
sS'm4m'
p595
I0
sg13
S'34.298092'
p596
sS'w4m'
p597
I0
ssS'winston'
p598
(dp599
g3
S'winston'
p600
sS'w4w'
p601
I17
sg6
g598
sg7
S'-123.453420'
p602
sS'm4w'
p603
I170
sg10
S'OR'
p604
sS'm4m'
p605
I139
sg13
S'43.306579'
p606
sS'w4m'
p607
I69
ssS'saginaw'
p608
(dp609
g3
S'saginaw'
p610
sS'w4w'
p611
I38
sg6
g608
sg7
S'-122.998790'
p612
sS'm4w'
p613
I76
sg10
S'OR'
p614
sS'm4m'
p615
I0
sg13
S'43.863845'
p616
sS'w4m'
p617
I39
ssS'bend'
p618
(dp619
g3
S'bend'
p620
sS'w4w'
p621
I46
sg6
g618
sg7
S'-120.949520'
p622
sS'm4w'
p623
I93
sg10
S'OR'
p624
sS'm4m'
p625
I43
sg13
S'44.001834'
p626
sS'w4m'
p627
I23
ssS'birmingham, AL'
p628
(dp629
g3
S'birmingham'
p630
sS'w4w'
p631
I55
sg6
g628
sg7
S'-86.929208'
p632
sS'm4w'
p633
I342
sg10
S'AL'
p634
sS'm4m'
p635
I631
sg13
S'33.544622'
p636
sS'w4m'
p637
I119
ssS'college station'
p638
(dp639
g3
S'college station'
p640
sS'w4w'
p641
I12
sg6
g638
sg7
S'-96.293826'
p642
sS'm4w'
p643
I132
sg10
S'TX'
p644
sS'm4m'
p645
I317
sg13
S'30.579234'
p646
sS'w4m'
p647
I35
ssS'lubbock'
p648
(dp649
g3
S'lubbock'
p650
sS'w4w'
p651
I38
sg6
g648
sg7
S'-101.821292'
p652
sS'm4w'
p653
I155
sg10
S'TX'
p654
sS'm4m'
p655
I192
sg13
S'33.610018'
p656
sS'w4m'
p657
I0
ssS'north platte'
p658
(dp659
g3
S'north platte'
p660
sS'w4w'
p661
I37
sg6
g658
sg7
S'-100.746912'
p662
sS'm4w'
p663
I0
sg10
S'NE'
p664
sS'm4m'
p665
I0
sg13
S'41.046447'
p666
sS'w4m'
p667
I0
ssS'east idaho'
p668
(dp669
S'm4w'
p670
I89
sg6
g668
sS'w4w'
p671
I80
sS'w4m'
p672
I10
sS'm4m'
p673
I65
ssS'louisville'
p674
(dp675
g3
S'louisville'
p676
sS'w4w'
p677
I38
sg6
g674
sg7
S'-105.373507'
p678
sS'm4w'
p679
I476
sg10
S'CO'
p680
sS'm4m'
p681
I431
sg13
S'40.087835'
p682
sS'w4m'
p683
I77
ssS'catskills'
p684
(dp685
S'm4w'
p686
I27
sg6
g684
sS'm4m'
p687
I11
sS'w4m'
p688
I19
sS'w4w'
p689
I47
ssS'chillicothe'
p690
(dp691
g3
S'chillicothe'
p692
sS'w4w'
p693
I61
sg6
g690
sg7
S'-99.547098'
p694
sS'm4w'
p695
I45
sg10
S'TX'
p696
sS'm4m'
p697
I24
sg13
S'34.195699'
p698
sS'w4m'
p699
I17
ssS'springfield'
p700
(dp701
g3
S'springfield'
p702
sS'w4w'
p703
I53
sg6
g700
sg7
S'-122.872806'
p704
sS'm4w'
p705
I378
sg10
S'OR'
p706
sS'm4m'
p707
I139
sg13
S'44.095761'
p708
sS'w4m'
p709
I80
ssS'mankato'
p710
(dp711
g3
S'mankato'
p712
sS'w4w'
p713
I39
sg6
g710
sg7
S'-98.20595'
p714
sS'm4w'
p715
I39
sg10
S'KS'
p716
sS'm4m'
p717
I0
sg13
S'39.787529'
p718
sS'w4m'
p719
I0
ssS'valdosta'
p720
(dp721
g3
S'valdosta'
p722
sS'w4w'
p723
I42
sg6
g720
sg7
S'-83.207206'
p724
sS'm4w'
p725
I54
sg10
S'GA'
p726
sS'm4m'
p727
I30
sg13
S'30.975119'
p728
sS'w4m'
p729
I30
ssS'grand forks'
p730
(dp731
g3
S'grand forks'
p732
sS'w4w'
p733
I22
sg6
g730
sg7
S'-97.394446'
p734
sS'm4w'
p735
I39
sg10
S'ND'
p736
sS'm4m'
p737
I44
sg13
S'47.933481'
p738
sS'w4m'
p739
I29
ssS'billings'
p740
(dp741
g3
S'billings'
p742
sS'w4w'
p743
I35
sg6
g740
sg7
S'-97.408128'
p744
sS'm4w'
p745
I73
sg10
S'OK'
p746
sS'm4m'
p747
I35
sg13
S'36.513543'
p748
sS'w4m'
p749
I25
ssS'richmond, IN'
p750
(dp751
g3
S'richmond'
p752
sS'w4w'
p753
I0
sg6
g750
sg7
S'-85.015983'
p754
sS'm4w'
p755
I0
sg10
S'IN'
p756
sS'm4m'
p757
I0
sg13
S'39.860417'
p758
sS'w4m'
p759
I0
ssS'killeen'
p760
(dp761
g3
S'killeen'
p762
sS'w4w'
p763
I35
sg6
g760
sg7
S'-97.590787'
p764
sS'm4w'
p765
I283
sg10
S'TX'
p766
sS'm4m'
p767
I144
sg13
S'31.043013'
p768
sS'w4m'
p769
I111
ssS'space coast'
p770
(dp771
S'm4m'
p772
I107
sg6
g770
sS'w4w'
p773
I22
sS'm4w'
p774
I198
sS'w4m'
p775
I60
ssS'west virginia'
p776
(dp777
S'w4m'
p778
I13
sg6
g776
sS'w4w'
p779
I27
sS'm4w'
p780
I15
sS'm4m'
p781
I48
ssS'finger lakes'
p782
(dp783
g6
g782
sS'm4m'
p784
I18
sS'w4w'
p785
I78
sS'm4w'
p786
I46
sS'w4m'
p787
I19
ssS'galveston'
p788
(dp789
g3
S'galveston'
p790
sS'w4w'
p791
I3
sg6
g788
sg7
S'-94.800238'
p792
sS'm4w'
p793
I37
sg10
S'TX'
p794
sS'm4m'
p795
I35
sg13
S'29.330501'
p796
sS'w4m'
p797
I13
ssS'houston'
p798
(dp799
g3
S'houston'
p800
sS'w4w'
p801
I495
sg6
g798
sg7
S'-149.715167'
p802
sS'm4w'
p803
I2684
sg10
S'AK'
p804
sS'm4m'
p805
I8125
sg13
S'62.280436'
p806
sS'w4m'
p807
I541
ssS'tallahassee'
p808
(dp809
g3
S'tallahassee'
p810
sS'w4w'
p811
I47
sg6
g808
sg7
S'-84.29095'
p812
sS'm4w'
p813
I149
sg10
S'FL'
p814
sS'm4m'
p815
I216
sg13
S'30.449428'
p816
sS'w4m'
p817
I76
ssS'fresno'
p818
(dp819
g3
S'fresno'
p820
sS'w4w'
p821
I41
sg6
g818
sg7
S'-119.639658'
p822
sS'm4w'
p823
I352
sg10
S'CA'
p824
sS'm4m'
p825
I872
sg13
S'36.746375'
p826
sS'w4m'
p827
I54
ssS'rochester, MN'
p828
(dp829
g3
S'rochester'
p830
sS'w4w'
p831
I37
sg6
g828
sg7
S'-92.405294'
p832
sS'm4w'
p833
I37
sg10
S'MN'
p834
sS'm4m'
p835
I0
sg13
S'44.107815'
p836
sS'w4m'
p837
I0
ssS'beaumont'
p838
(dp839
g3
S'beaumont'
p840
sS'w4w'
p841
I6
sg6
g838
sg7
S'-116.954753'
p842
sS'm4w'
p843
I55
sg10
S'CA'
p844
sS'm4m'
p845
I50
sg13
S'33.92703'
p846
sS'w4m'
p847
I24
ssS'auburn'
p848
(dp849
g3
S'auburn'
p850
sS'w4w'
p851
I3
sg6
g848
sg7
S'-122.097976'
p852
sS'm4w'
p853
I36
sg10
S'WA'
p854
sS'm4m'
p855
I35
sg13
S'47.288362'
p856
sS'w4m'
p857
I20
ssS'helena'
p858
(dp859
g3
S'helena'
p860
sS'w4w'
p861
I25
sg6
g858
sg7
S'-98.271091'
p862
sS'm4w'
p863
I8
sg10
S'OK'
p864
sS'm4m'
p865
I66
sg13
S'36.546639'
p866
sS'w4m'
p867
I46
ssS'logan'
p868
(dp869
g3
S'logan'
p870
sS'w4w'
p871
I79
sg6
g868
sg7
S'-103.264281'
p872
sS'm4w'
p873
I0
sg10
S'NM'
p874
sS'm4m'
p875
I0
sg13
S'35.52453'
p876
sS'w4m'
p877
I0
ssS'deep east TX'
p878
(dp879
S'm4w'
p880
I40
sg6
g878
sS'w4w'
p881
I74
sS'w4m'
p882
I19
sS'm4m'
p883
I27
ssS'modesto'
p884
(dp885
g3
S'modesto'
p886
sS'w4w'
p887
I0
sg6
g884
sg7
S'-120.937052'
p888
sS'm4w'
p889
I188
sg10
S'CA'
p890
sS'm4m'
p891
I411
sg13
S'37.60396'
p892
sS'w4m'
p893
I0
ssS'detroit metro'
p894
(dp895
S'w4m'
p896
I292
sg6
g894
sS'm4m'
p897
I2960
sS'm4w'
p898
I1214
sS'w4w'
p899
I221
ssS'milwaukee'
p900
(dp901
g3
S'milwaukee'
p902
sS'w4w'
p903
I37
sg6
g900
sg7
S'-87.569664'
p904
sS'm4w'
p905
I767
sg10
S'WI'
p906
sS'm4m'
p907
I1016
sg13
S'43.017412'
p908
sS'w4m'
p909
I113
ssS'eau claire'
p910
(dp911
g3
S'eau claire'
p912
sS'w4w'
p913
I47
sg6
g910
sg7
S'-91.477897'
p914
sS'm4w'
p915
I126
sg10
S'WI'
p916
sS'm4m'
p917
I30
sg13
S'44.80456'
p918
sS'w4m'
p919
I49
ssS'fairbanks'
p920
(dp921
g3
S'fairbanks'
p922
sS'w4w'
p923
I6
sg6
g920
sg7
S'-146.275980'
p924
sS'm4w'
p925
I78
sg10
S'AK'
p926
sS'm4m'
p927
I6
sg13
S'64.856055'
p928
sS'w4m'
p929
I23
ssS'athens, OH'
p930
(dp931
g3
S'athens'
p932
sS'w4w'
p933
I70
sg6
g930
sg7
S'-82.013803'
p934
sS'm4w'
p935
I9
sg10
S'OH'
p936
sS'm4m'
p937
I7
sg13
S'39.339279'
p938
sS'w4m'
p939
I8
ssS'oneonta'
p940
(dp941
g3
S'oneonta'
p942
sS'w4w'
p943
I38
sg6
g940
sg7
S'-86.5535'
p944
sS'm4w'
p945
I0
sg10
S'AL'
p946
sS'm4m'
p947
I0
sg13
S'33.968171'
p948
sS'w4m'
p949
I0
ssS'denver'
p950
(dp951
g3
S'denver'
p952
sS'w4w'
p953
I159
sg6
g950
sg7
S'-104.408349'
p954
sS'm4w'
p955
I2062
sg10
S'CO'
p956
sS'm4m'
p957
I5752
sg13
S'39.738752'
p958
sS'w4m'
p959
I335
ssS'new orleans'
p960
(dp961
g3
S'new orleans'
p962
sS'w4w'
p963
I111
sg6
g960
sg7
S'-89.882564'
p964
sS'm4w'
p965
I504
sg10
S'LA'
p966
sS'm4m'
p967
I1522
sg13
S'30.032997'
p968
sS'w4m'
p969
I111
ssS'charlottesville'
p970
(dp971
g3
S'charlottesville'
p972
sS'w4w'
p973
I71
sg6
g970
sg7
S'-85.625798'
p974
sS'm4w'
p975
I99
sg10
S'IN'
p976
sS'm4m'
p977
I97
sg13
S'39.838824'
p978
sS'w4m'
p979
I19
ssS'meridian'
p980
(dp981
g3
S'meridian'
p982
sS'w4w'
p983
I39
sg6
g980
sg7
S'-121.848565'
p984
sS'm4w'
p985
I0
sg10
S'CA'
p986
sS'm4m'
p987
I0
sg13
S'39.066931'
p988
sS'w4m'
p989
I0
ssS'eugene'
p990
(dp991
g3
S'eugene'
p992
sS'w4w'
p993
I42
sg6
g990
sg7
S'-122.998790'
p994
sS'm4w'
p995
I348
sg10
S'OR'
p996
sS'm4m'
p997
I81
sg13
S'43.863845'
p998
sS'w4m'
p999
I69
ssS'green bay'
p1000
(dp1001
g3
S'green bay'
p1002
sS'w4w'
p1003
I55
sg6
g1000
sg7
S'-88.111252'
p1004
sS'm4w'
p1005
I145
sg10
S'WI'
p1006
sS'm4m'
p1007
I47
sg13
S'44.42504'
p1008
sS'w4m'
p1009
I35
ssS'south florida'
p1010
(dp1011
S'w4m'
p1012
I437
sg6
g1010
sS'm4m'
p1013
I1756
sS'm4w'
p1014
I1563
sS'w4w'
p1015
I321
ssS'harrisburg'
p1016
(dp1017
g3
S'harrisburg'
p1018
sS'w4w'
p1019
I49
sg6
g1016
sg7
S'-123.108438'
p1020
sS'm4w'
p1021
I255
sg10
S'OR'
p1022
sS'm4m'
p1023
I188
sg13
S'44.273684'
p1024
sS'w4m'
p1025
I58
ssS'western MD'
p1026
(dp1027
g3
S'western'
p1028
sS'w4w'
p1029
I37
sg6
S'western KY'
p1030
sg7
S'-97.265045'
p1031
sS'm4w'
p1032
I46
sg10
S'NE'
p1033
sS'm4m'
p1034
I21
sg13
S'40.403717'
p1035
sS'w4m'
p1036
I6
ssS'flint'
p1037
(dp1038
g3
S'flint'
p1039
sS'w4w'
p1040
I22
sg6
g1037
sg7
S'-95.390166'
p1041
sS'm4w'
p1042
I144
sg10
S'TX'
p1043
sS'm4m'
p1044
I47
sg13
S'32.226635'
p1045
sS'w4m'
p1046
I28
ssS'richmond, VA'
p1047
(dp1048
g3
S'richmond'
p1049
sS'w4w'
p1050
I76
sg6
g1047
sg7
S'-77.431555'
p1051
sS'm4w'
p1052
I673
sg10
S'VA'
p1053
sS'm4m'
p1054
I891
sg13
S'37.540646'
p1055
sS'w4m'
p1056
I150
ssS'akron'
p1057
(dp1058
g3
S'akron'
p1059
sS'w4w'
p1060
I44
sg6
g1057
sg7
S'-103.202379'
p1061
sS'm4w'
p1062
I344
sg10
S'CO'
p1063
sS'm4m'
p1064
I229
sg13
S'40.073328'
p1065
sS'w4m'
p1066
I116
ssS'norfolk'
p1067
(dp1068
g3
S'norfolk'
p1069
sS'w4w'
p1070
I187
sg6
g1067
sg7
S'-97.601348'
p1071
sS'm4w'
p1072
I995
sg10
S'NE'
p1073
sS'm4m'
p1074
I1471
sg13
S'41.916476'
p1075
sS'w4m'
p1076
I279
ssS'susanville'
p1077
(dp1078
g3
S'susanville'
p1079
sS'w4w'
p1080
I64
sg6
g1077
sg7
S'-120.719159'
p1081
sS'm4w'
p1082
I6
sg10
S'CA'
p1083
sg13
S'40.548881'
p1084
sS'w4m'
p1085
I1
ssS'hickory'
p1086
(dp1087
g3
S'hickory'
p1088
sS'w4w'
p1089
I11
sg6
g1086
sg7
S'-88.640928'
p1090
sS'm4w'
p1091
I122
sg10
S'KY'
p1092
sS'm4m'
p1093
I53
sg13
S'36.852197'
p1094
sS'w4m'
p1095
I51
ssS'south jersey'
p1096
(dp1097
S'm4m'
p1098
I1550
sg6
g1096
sS'w4w'
p1099
I38
sS'w4m'
p1100
I75
sS'm4w'
p1101
I561
ssS'missoula'
p1102
(dp1103
g3
S'missoula'
p1104
sS'w4w'
p1105
I0
sg6
g1102
sg7
S'-114.049824'
p1106
sS'm4w'
p1107
I38
sg10
S'MT'
p1108
sS'm4m'
p1109
I38
sg13
S'47.116034'
p1110
sS'w4m'
p1111
I38
ssS'north jersey'
p1112
(dp1113
S'm4m'
p1114
I4713
sg6
g1112
sS'w4w'
p1115
I107
sS'm4w'
p1116
I1314
sS'w4m'
p1117
I260
ssS'redding'
p1118
(dp1119
g3
S'redding'
p1120
sS'w4w'
p1121
I0
sg6
g1118
sg7
S'-122.387808'
p1122
sS'm4w'
p1123
I114
sg10
S'CA'
p1124
sS'm4m'
p1125
I40
sg13
S'40.704337'
p1126
sS'w4m'
p1127
I0
ssS'york, PA'
p1128
(dp1129
g3
S'york'
p1130
sS'w4w'
p1131
I6
sg6
g1128
sg7
S'-76.687826'
p1132
sS'm4w'
p1133
I154
sg10
S'PA'
p1134
sS'm4m'
p1135
I78
sg13
S'39.972985'
p1136
sS'w4m'
p1137
I31
ssS'medford'
p1138
(dp1139
g3
S'medford'
p1140
sS'w4w'
p1141
I39
sg6
g1138
sg7
S'-122.793659'
p1142
sS'm4w'
p1143
I153
sg10
S'OR'
p1144
sS'm4m'
p1145
I39
sg13
S'42.322392'
p1146
sS'w4m'
p1147
I0
ssS'central NJ'
p1148
(dp1149
g3
S'central'
p1150
sS'w4w'
p1151
I77
sg6
S'central MI'
p1152
sg7
S'-151.025085'
p1153
sS'm4w'
p1154
I614
sg10
S'AK'
p1155
sS'm4m'
p1156
I2703
sg13
S'65.226375'
p1157
sS'w4m'
p1158
I26
ssS'state college'
p1159
(dp1160
g3
S'state college'
p1161
sS'w4w'
p1162
I39
sg6
g1159
sg7
S'-77.760172'
p1163
sS'm4w'
p1164
I74
sg10
S'PA'
p1165
sS'm4m'
p1166
I43
sg13
S'40.972229'
p1167
sS'w4m'
p1168
I19
ssS'huntington'
p1169
(dp1170
g3
S'huntington'
p1171
sS'w4w'
p1172
I34
sg6
g1169
sg7
S'-117.389163'
p1173
sS'm4w'
p1174
I62
sg10
S'OR'
p1175
sS'm4m'
p1176
I32
sg13
S'44.432748'
p1177
sS'w4m'
p1178
I29
ssS'northern MI'
p1179
(dp1180
S'w4m'
p1181
I39
sg6
g1179
sS'm4m'
p1182
I36
sS'm4w'
p1183
I147
sS'w4w'
p1184
I74
ssS'texoma'
p1185
(dp1186
S'w4m'
p1187
I39
sg6
g1185
sS'm4m'
p1188
I30
sS'm4w'
p1189
I54
sS'w4w'
p1190
I8
ssS'pensacola'
p1191
(dp1192
g3
S'pensacola'
p1193
sS'w4w'
p1194
I39
sg6
g1191
sg7
S'-87.275772'
p1195
sS'm4w'
p1196
I225
sg10
S'FL'
p1197
sS'm4m'
p1198
I74
sg13
S'30.61428'
p1199
sS'w4m'
p1200
I39
ssS'east oregon'
p1201
(dp1202
S'w4m'
p1203
I13
sg6
g1201
sS'w4w'
p1204
I74
sS'm4w'
p1205
I20
sS'm4m'
p1206
I4
ssS'fargo'
p1207
(dp1208
g3
S'fargo'
p1209
sS'w4w'
p1210
I20
sg6
g1207
sg7
S'-99.622067'
p1211
sS'm4w'
p1212
I113
sg10
S'OK'
p1213
sS'm4m'
p1214
I51
sg13
S'36.373497'
p1215
sS'w4m'
p1216
I53
ssS'eastern montana'
p1217
(dp1218
S'm4w'
p1219
I15
sg6
g1217
sS'w4w'
p1220
I26
sS'w4m'
p1221
I41
sS'm4m'
p1222
I66
ssS'plattsburgh'
p1223
(dp1224
g3
S'plattsburgh'
p1225
sS'w4w'
p1226
I35
sg6
g1223
sg7
S'-73.447398'
p1227
sS'm4w'
p1228
I0
sg10
S'NY'
p1229
sS'm4m'
p1230
I0
sg13
S'44.685411'
p1231
sS'w4m'
p1232
I0
ssS'la salle co'
p1233
(dp1234
g3
S'la salle'
p1235
sS'w4w'
p1236
I2
sg6
g1233
sg7
S'-104.665639'
p1237
sS'm4w'
p1238
I26
sg10
S'CO'
p1239
sS'm4m'
p1240
I8
sg13
S'40.328185'
p1241
sS'w4m'
p1242
I16
ssS'lawrence'
p1243
(dp1244
g3
S'lawrence'
p1245
sS'w4w'
p1246
I73
sg6
g1243
sg7
S'-98.25954'
p1247
sS'm4w'
p1248
I60
sg10
S'NE'
p1249
sS'm4m'
p1250
I12
sg13
S'40.291047'
p1251
sS'w4m'
p1252
I11
ssS'victoria, TX'
p1253
(dp1254
g3
S'victoria'
p1255
sS'w4w'
p1256
I1
sg6
g1253
sg7
S'-97.033759'
p1257
sS'm4w'
p1258
I32
sg10
S'TX'
p1259
sS'm4m'
p1260
I10
sg13
S'28.752488'
p1261
sS'w4m'
p1262
I12
ssS'albuquerque'
p1263
(dp1264
g3
S'albuquerque'
p1265
sS'w4w'
p1266
I57
sg6
g1263
sg7
S'-106.672872'
p1267
sS'm4w'
p1268
I521
sg10
S'NM'
p1269
sS'm4m'
p1270
I1372
sg13
S'35.044339'
p1271
sS'w4m'
p1272
I111
ssS'port huron'
p1273
(dp1274
g3
S'port huron'
p1275
sS'w4w'
p1276
I37
sg6
g1273
sg7
S'-82.66522'
p1277
sS'm4w'
p1278
I38
sg10
S'MI'
p1279
sS'm4m'
p1280
I0
sg13
S'42.824095'
p1281
sS'w4m'
p1282
I0
ssS'las cruces'
p1283
(dp1284
g3
S'las cruces'
p1285
sS'w4w'
p1286
I63
sg6
g1283
sg7
S'-106.604677'
p1287
sS'm4w'
p1288
I94
sg10
S'NM'
p1289
sS'm4m'
p1290
I148
sg13
S'32.329638'
p1291
sS'w4m'
p1292
I20
ssS'shreveport'
p1293
(dp1294
g3
S'shreveport'
p1295
sS'w4w'
p1296
I38
sg6
g1293
sg7
S'-93.75256'
p1297
sS'm4w'
p1298
I111
sg10
S'LA'
p1299
sS'm4m'
p1300
I35
sg13
S'32.607556'
p1301
sS'w4m'
p1302
I39
ssS'scottsbluff'
p1303
(dp1304
g3
S'scottsbluff'
p1305
sS'w4w'
p1306
I0
sg6
g1303
sg7
S'-103.707260'
p1307
sS'm4w'
p1308
I0
sg10
S'NE'
p1309
sS'm4m'
p1310
I0
sg13
S'41.851012'
p1311
sS'w4m'
p1312
I0
ssS'albany, GA'
p1313
(dp1314
g3
S'albany'
p1315
sS'w4w'
p1316
I64
sg6
g1313
sg7
S'-84.132357'
p1317
sS'm4w'
p1318
I25
sg10
S'GA'
p1319
sS'm4m'
p1320
I15
sg13
S'31.591073'
p1321
sS'w4m'
p1322
I25
ssS'lynchburg'
p1323
(dp1324
g3
S'lynchburg'
p1325
sS'w4w'
p1326
I40
sg6
g1323
sg7
S'-92.30882'
p1327
sS'm4w'
p1328
I38
sg10
S'MO'
p1329
sS'm4m'
p1330
I0
sg13
S'37.522073'
p1331
sS'w4m'
p1332
I0
ssS'waterloo'
p1333
(dp1334
g3
S'waterloo'
p1335
sS'w4w'
p1336
I45
sg6
g1333
sg7
S'-96.305914'
p1337
sS'm4w'
p1338
I38
sg10
S'NE'
p1339
sS'm4m'
p1340
I22
sg13
S'41.248299'
p1341
sS'w4m'
p1342
I15
ssS'long island'
p1343
(dp1344
g3
S'long island'
p1345
sS'w4w'
p1346
I0
sg6
g1343
sg7
S'-99.347075'
p1347
sS'm4w'
p1348
I726
sg10
S'KS'
p1349
sS'm4m'
p1350
I1173
sg13
S'39.784708'
p1351
sS'w4m'
p1352
I152
ssS'houma'
p1353
(dp1354
g3
S'houma'
p1355
sS'w4w'
p1356
I45
sg6
g1353
sg7
S'-90.732776'
p1357
sS'm4w'
p1358
I33
sg10
S'LA'
p1359
sS'm4m'
p1360
I14
sg13
S'29.597188'
p1361
sS'w4m'
p1362
I11
ssS'raleigh'
p1363
(dp1364
g3
S'raleigh'
p1365
sS'w4w'
p1366
I76
sg6
g1363
sg7
S'-88.549793'
p1367
sS'm4w'
p1368
I959
sg10
S'IL'
p1369
sS'm4m'
p1370
I2746
sg13
S'37.822856'
p1371
sS'w4m'
p1372
I232
ssS'charleston'
p1373
(dp1374
g3
S'charleston'
p1375
sS'w4w'
p1376
I65
sg6
g1373
sg7
S'-93.95098'
p1377
sS'm4w'
p1378
I354
sg10
S'AR'
p1379
sS'm4m'
p1380
I389
sg13
S'35.387924'
p1381
sS'w4m'
p1382
I116
ssS'western slope'
p1383
(dp1384
S'm4w'
p1385
I109
sg6
g1383
sS'm4m'
p1386
I64
sS'w4m'
p1387
I31
sS'w4w'
p1388
I7
ssS'lewiston'
p1389
(dp1390
g3
S'lewiston'
p1391
sS'w4w'
p1392
I68
sg6
g1389
sg7
S'-122.837262'
p1393
sS'm4w'
p1394
I23
sg10
S'CA'
p1395
sS'm4m'
p1396
I6
sg13
S'40.736068'
p1397
sS'w4m'
p1398
I4
ssS'austin'
p1399
(dp1400
g3
S'austin'
p1401
sS'w4w'
p1402
I125
sg6
g1399
sg7
S'-117.196690'
p1403
sS'm4w'
p1404
I1526
sg10
S'NV'
p1405
sS'm4m'
p1406
I4488
sg13
S'40.046976'
p1407
sS'w4m'
p1408
I202
ssS'bloomington, IL'
p1409
(dp1410
g3
S'bloomington'
p1411
sS'w4w'
p1412
I45
sg6
g1409
sg7
S'-88.939637'
p1413
sS'm4w'
p1414
I66
sg10
S'IL'
p1415
sS'm4m'
p1416
I48
sg13
S'40.488468'
p1417
sS'w4m'
p1418
I13
ssS'macon'
p1419
(dp1420
g3
S'macon'
p1421
sS'w4w'
p1422
I0
sg6
g1419
sg7
S'-92.451742'
p1423
sS'm4w'
p1424
I116
sg10
S'MO'
p1425
sS'm4m'
p1426
I37
sg13
S'39.773979'
p1427
sS'w4m'
p1428
I39
ssS'humboldt'
p1429
(dp1430
g3
S'humboldt'
p1431
sS'w4w'
p1432
I43
sg6
g1429
sg7
S'-112.252340'
p1433
sS'm4w'
p1434
I105
sg10
S'AZ'
p1435
sS'm4m'
p1436
I36
sg13
S'34.518883'
p1437
sS'w4m'
p1438
I25
ssS'roswell'
p1439
(dp1440
g3
S'roswell'
p1441
sS'w4w'
p1442
I39
sg6
g1439
sg7
S''
p1443
sS'm4w'
p1444
I0
sg10
S'NM'
p1445
sS'm4m'
p1446
I0
sg13
g1443
sS'w4m'
p1447
I0
ssS'gulfport'
p1448
(dp1449
g3
S'gulfport'
p1450
sS'w4w'
p1451
I23
sg6
g1448
sg7
S'-89.031635'
p1452
sS'm4w'
p1453
I147
sg10
S'MS'
p1454
sS'm4m'
p1455
I58
sg13
S'30.400079'
p1456
sS'w4m'
p1457
I36
ssS'bloomington, IN'
p1458
(dp1459
g3
S'bloomington'
p1460
sS'w4w'
p1461
I50
sg6
g1458
sg7
S'-86.501543'
p1462
sS'm4w'
p1463
I102
sg10
S'IN'
p1464
sS'm4m'
p1465
I33
sg13
S'39.173234'
p1466
sS'w4m'
p1467
I29
ssS'sandusky'
p1468
(dp1469
g3
S'sandusky'
p1470
sS'w4w'
p1471
I0
sg6
g1468
sg7
S'-82.858995'
p1472
sS'm4w'
p1473
I0
sg10
S'MI'
p1474
sS'm4m'
p1475
I0
sg13
S'43.374676'
p1476
sS'w4m'
p1477
I0
ssS'del rio'
p1478
(dp1479
g3
S'del rio'
p1480
sS'w4w'
p1481
I56
sg6
g1478
sg7
S'-101.230032'
p1482
sS'm4w'
p1483
I12
sg10
S'TX'
p1484
sS'm4m'
p1485
I7
sg13
S'29.763171'
p1486
sS'w4m'
p1487
I2
ssS'new york'
p1488
(dp1489
g3
S'new york'
p1490
sg6
g1488
sg7
S'-73.977182'
p1491
sg10
S'NY'
p1492
sS'm4m'
p1493
I4133
sg13
S'40.780751'
p1494
sS'w4m'
p1495
I293
ssS'danville'
p1496
(dp1497
g3
S'danville'
p1498
sS'w4w'
p1499
I36
sg6
g1496
sg7
S'-118.505768'
p1500
sS'm4w'
p1501
I31
sg10
S'WA'
p1502
sS'm4m'
p1503
I29
sg13
S'48.954016'
p1504
sS'w4m'
p1505
I7
ssS'muncie'
p1506
(dp1507
g3
S'muncie'
p1508
sS'w4w'
p1509
I0
sg6
g1506
sg7
S'-87.844689'
p1510
sS'm4w'
p1511
I77
sg10
S'IL'
p1512
sS'm4m'
p1513
I38
sg13
S'40.116478'
p1514
sS'w4m'
p1515
I0
ssS'sioux falls'
p1516
(dp1517
g3
S'sioux falls'
p1518
sS'w4w'
p1519
I0
sg6
g1516
sg7
S'-96.79134'
p1520
sS'm4w'
p1521
I110
sg10
S'SD'
p1522
sS'm4m'
p1523
I37
sg13
S'43.674582'
p1524
sS'w4m'
p1525
I37
ssS'pittsburgh'
p1526
(dp1527
g3
S'pittsburgh'
p1528
sS'w4w'
p1529
I77
sg6
g1526
sg7
S'-80.024817'
p1530
sS'm4w'
p1531
I1187
sg10
S'PA'
p1532
sS'm4m'
p1533
I2463
sg13
S'40.434436'
p1534
sS'w4m'
p1535
I189
ssS'peoria'
p1536
(dp1537
g3
S'peoria'
p1538
sS'w4w'
p1539
I40
sg6
g1536
sg7
S'-112.187170'
p1540
sS'm4w'
p1541
I77
sg10
S'AZ'
p1542
sS'm4m'
p1543
I39
sg13
S'33.276539'
p1544
sS'w4m'
p1545
I40
ssS'vermont'
p1546
(dp1547
g3
S'vermont'
p1548
sS'w4w'
p1549
I60
sg6
g1546
sg7
S'-90.393432'
p1550
sS'm4w'
p1551
I213
sg10
S'IL'
p1552
sS'm4m'
p1553
I122
sg13
S'40.285383'
p1554
sS'w4m'
p1555
I45
ssS'panama city, FL'
p1556
(dp1557
g3
S'panama city'
p1558
sS'w4w'
p1559
I36
sg6
g1556
sg7
S'-85.916988'
p1560
sS'm4w'
p1561
I105
sg10
S'FL'
p1562
sS'm4m'
p1563
I35
sg13
S'30.243832'
p1564
sS'w4m'
p1565
I0
ssS'hartford'
p1566
(dp1567
g3
S'hartford'
p1568
sS'w4w'
p1569
I55
sg6
g1566
sg7
S'-94.353779'
p1570
sS'm4w'
p1571
I339
sg10
S'AR'
p1572
sS'm4m'
p1573
I676
sg13
S'35.060177'
p1574
sS'w4m'
p1575
I72
ssS'northwest OK'
p1576
(dp1577
S'm4w'
p1578
I0
sg6
g1576
sS'm4m'
p1579
I0
sS'w4m'
p1580
I0
sS'w4w'
p1581
I37
ssS'evansville'
p1582
(dp1583
g3
S'evansville'
p1584
sS'w4w'
p1585
I72
sg6
g1582
sg7
S'-106.175375'
p1586
sS'm4w'
p1587
I116
sg10
S'WY'
p1588
sS'm4m'
p1589
I43
sg13
S'42.899153'
p1590
sS'w4m'
p1591
I37
ssS'holland'
p1592
(dp1593
g3
S'holland'
p1594
sS'w4w'
p1595
I85
sg6
g1592
sg7
S'-97.418108'
p1596
sS'm4w'
p1597
I31
sg10
S'TX'
p1598
sS'm4m'
p1599
I12
sg13
S'30.887588'
p1600
sS'w4m'
p1601
I10
ssS'western IL'
p1602
g1027
sS'columbia, MO'
p1603
(dp1604
g3
S'columbia'
p1605
sS'w4w'
p1606
I25
sg6
g1603
sg7
S'-92.102153'
p1607
sS'm4w'
p1608
I169
sg10
S'MO'
p1609
sS'm4m'
p1610
I81
sg13
S'38.903318'
p1611
sS'w4m'
p1612
I72
ssS'youngstown'
p1613
(dp1614
g3
S'youngstown'
p1615
sS'w4w'
p1616
I22
sg6
g1613
sg7
S'-80.802854'
p1617
sS'm4w'
p1618
I127
sg10
S'OH'
p1619
sS'm4m'
p1620
I64
sg13
S'41.017082'
p1621
sS'w4m'
p1622
I51
ssS'ventura'
p1623
(dp1624
g3
S'ventura'
p1625
sS'w4w'
p1626
I23
sg6
g1623
sg7
S'-119.146228'
p1627
sS'm4w'
p1628
I258
sg10
S'CA'
p1629
sS'm4m'
p1630
I957
sg13
S'34.356248'
p1631
sS'w4m'
p1632
I57
ssS'fort dodge'
p1633
(dp1634
g3
S'fort dodge'
p1635
sS'w4w'
p1636
I52
sg6
g1633
sg7
S'-94.166587'
p1637
sS'm4w'
p1638
I14
sg10
S'IA'
p1639
sS'm4m'
p1640
I31
sg13
S'42.438596'
p1641
sS'w4m'
p1642
I10
ssS'prescott'
p1643
(dp1644
g3
S'prescott'
p1645
sS'w4w'
p1646
I0
sg6
g1643
sg7
S'-118.455541'
p1647
sS'm4w'
p1648
I38
sg10
S'WA'
p1649
sS'm4m'
p1650
I0
sg13
S'46.354972'
p1651
sS'w4m'
p1652
I0
ssS'klamath falls'
p1653
(dp1654
g3
S'klamath falls'
p1655
sS'w4w'
p1656
I32
sg6
g1653
sg7
S'-121.685853'
p1657
sS'm4w'
p1658
I25
sg10
S'OR'
p1659
sS'm4m'
p1660
I43
sg13
S'42.61276'
p1661
sS'w4m'
p1662
I29
ssS'charlotte'
p1663
(dp1664
g3
S'charlotte'
p1665
sS'w4w'
p1666
I123
sg6
g1663
sg7
S'-98.655756'
p1667
sS'm4w'
p1668
I1172
sg10
S'TX'
p1669
sS'm4m'
p1670
I2601
sg13
S'28.814293'
p1671
sS'w4m'
p1672
I342
ssS'central SD'
p1673
g1149
sS'boston'
p1674
(dp1675
g3
S'boston'
p1676
sS'w4w'
p1677
I34
sg6
g1674
sg7
S'-84.848442'
p1678
sS'm4w'
p1679
I346
sg10
S'IN'
p1680
sS'm4m'
p1681
I1167
sg13
S'39.757864'
p1682
sS'w4m'
p1683
I60
ssS'worcester'
p1684
(dp1685
g3
S'worcester'
p1686
sS'w4w'
p1687
I21
sg6
g1684
sg7
S'-75.357555'
p1688
sS'm4w'
p1689
I240
sg10
S'PA'
p1690
sS'm4m'
p1691
I289
sg13
S'40.192881'
p1692
sS'w4m'
p1693
I69
ssS'reno'
p1694
(dp1695
g3
S'reno'
p1696
sS'w4w'
p1697
I0
sg6
g1694
sg7
S'-119.586934'
p1698
sS'm4w'
p1699
I379
sg10
S'NV'
p1700
sS'm4m'
p1701
I540
sg13
S'40.541218'
p1702
sS'w4m'
p1703
I41
ssS'tuscaloosa'
p1704
(dp1705
g3
S'tuscaloosa'
p1706
sS'w4w'
p1707
I50
sg6
g1704
sg7
S'-87.585902'
p1708
sS'm4w'
p1709
I51
sg10
S'AL'
p1710
sS'm4m'
p1711
I56
sg13
S'33.307222'
p1712
sS'w4m'
p1713
I24
ssS'heartland FL'
p1714
(dp1715
S'w4m'
p1716
I6
sg6
g1714
sS'm4m'
p1717
I21
sS'm4w'
p1718
I18
sS'w4w'
p1719
I1
ssS'cape cod'
p1720
(dp1721
S'm4w'
p1722
I91
sg6
g1720
sS'm4m'
p1723
I114
sS'w4m'
p1724
I29
sS'w4w'
p1725
I31
ssS'abilene'
p1726
(dp1727
g3
S'abilene'
p1728
sS'w4w'
p1729
I68
sg6
g1726
sg7
S'-99.711665'
p1730
sS'm4w'
p1731
I69
sg10
S'TX'
p1732
sS'm4m'
p1733
I39
sg13
S'32.466474'
p1734
sS'w4m'
p1735
I16
ssS'parkersburg'
p1736
(dp1737
g3
S'parkersburg'
p1738
sS'w4w'
p1739
I0
sg6
g1736
sg7
S'-88.011149'
p1740
sS'm4w'
p1741
I0
sg10
S'IL'
p1742
sS'm4m'
p1743
I37
sg13
S'38.587985'
p1744
sS'w4m'
p1745
I0
ssS'san diego'
p1746
(dp1747
g3
S'san diego'
p1748
sS'w4w'
p1749
I0
sg6
g1746
sg7
S'-117.191848'
p1750
sS'm4w'
p1751
I322
sg10
S'CA'
p1752
sS'm4m'
p1753
I637
sg13
S'32.751575'
p1754
sS'w4m'
p1755
I37
ssS'montgomery'
p1756
(dp1757
g3
S'montgomery'
p1758
sS'w4w'
p1759
I39
sg6
g1756
sg7
S'-95.49833'
p1760
sS'm4w'
p1761
I73
sg10
S'TX'
p1762
sS'm4m'
p1763
I36
sg13
S'30.354902'
p1764
sS'w4m'
p1765
I0
ssS'santa maria'
p1766
(dp1767
g3
S'santa maria'
p1768
sS'w4w'
p1769
I39
sg6
g1766
sg7
S'-120.495723'
p1770
sS'm4w'
p1771
I38
sg10
S'CA'
p1772
sS'm4m'
p1773
I37
sg13
S'34.953532'
p1774
sS'w4m'
p1775
I0
ssS'monroe, LA'
p1776
(dp1777
g3
S'monroe'
p1778
sS'w4w'
p1779
I39
sg6
g1776
sg7
S'-92.159354'
p1780
sS'm4w'
p1781
I39
sg10
S'LA'
p1782
sS'm4m'
p1783
I0
sg13
S'32.490777'
p1784
sS'w4m'
p1785
I0
ssS'clovis'
p1786
(dp1787
g3
S'clovis'
p1788
sS'w4w'
p1789
I68
sg6
g1786
sg7
S'-119.511704'
p1790
sS'm4w'
p1791
I12
sg10
S'CA'
p1792
sS'm4m'
p1793
I12
sg13
S'37.036529'
p1794
sS'w4m'
p1795
I10
ssS'fort smith'
p1796
(dp1797
g3
S'fort smith'
p1798
sS'w4w'
p1799
I31
sg6
g1796
sg7
S'-94.23816'
p1800
sS'm4w'
p1801
I104
sg10
S'AR'
p1802
sS'm4m'
p1803
I43
sg13
S'35.191046'
p1804
sS'w4m'
p1805
I29
ssS'yakima'
p1806
(dp1807
g3
S'yakima'
p1808
sS'w4w'
p1809
I9
sg6
g1806
sg7
S'-120.794978'
p1810
sS'm4w'
p1811
I87
sg10
S'WA'
p1812
sS'm4m'
p1813
I35
sg13
S'46.637538'
p1814
sS'w4m'
p1815
I12
ssS'dothan, AL'
p1816
(dp1817
g3
S'dothan'
p1818
sS'w4w'
p1819
I59
sg6
g1816
sg7
S'-85.4828'
p1820
sS'm4w'
p1821
I71
sg10
S'AL'
p1822
sS'm4m'
p1823
I30
sg13
S'31.219697'
p1824
sS'w4m'
p1825
I25
ssS'grand island'
p1826
(dp1827
g3
S'grand island'
p1828
sS'w4w'
p1829
I74
sg6
g1826
sg7
S'-98.521343'
p1830
sS'm4w'
p1831
I31
sg10
S'NE'
p1832
sS'm4m'
p1833
I15
sg13
S'40.872531'
p1834
sS'w4m'
p1835
I18
ssS'jersey shore'
p1836
(dp1837
g3
S'jersey shore'
p1838
sS'w4w'
p1839
I19
sg6
g1836
sg7
S'-77.025687'
p1840
sS'm4w'
p1841
I229
sg10
S'PA'
p1842
sS'm4m'
p1843
I483
sg13
S'41.208518'
p1844
sS'w4m'
p1845
I38
ssS'dayton'
p1846
(dp1847
g3
S'dayton'
p1848
sS'w4w'
p1849
I36
sg6
g1846
sg7
S'-117.949530'
p1850
sS'm4w'
p1851
I391
sg10
S'WA'
p1852
sS'm4m'
p1853
I318
sg13
S'46.392683'
p1854
sS'w4m'
p1855
I101
ssS'okaloosa'
p1856
(dp1857
S'w4m'
p1858
I40
sg6
g1856
sS'm4m'
p1859
I0
sS'm4w'
p1860
I76
sS'w4w'
p1861
I39
ssS'wichita falls'
p1862
(dp1863
g3
S'wichita falls'
p1864
sS'w4w'
p1865
I3
sg6
g1862
sg7
S'-98.576573'
p1866
sS'm4w'
p1867
I54
sg10
S'TX'
p1868
sS'm4m'
p1869
I11
sg13
S'33.87121'
p1870
sS'w4m'
p1871
I17
ssS'eastern shore'
p1872
(dp1873
S'm4w'
p1874
I130
sg6
g1872
sS'm4m'
p1875
I116
sS'w4m'
p1876
I17
sS'w4w'
p1877
I11
ssS'omaha'
p1878
(dp1879
g3
S'omaha'
p1880
sS'w4w'
p1881
I40
sg6
g1878
sg7
S'-94.739141'
p1882
sS'm4w'
p1883
I467
sg10
S'TX'
p1884
sS'm4m'
p1885
I309
sg13
S'33.179537'
p1886
sS'w4m'
p1887
I79
ssS'gadsden'
p1888
(dp1889
g3
S'gadsden'
p1890
sS'w4w'
p1891
I11
sg6
g1888
sg7
S'-114.774342'
p1892
sS'm4w'
p1893
I51
sg10
S'AZ'
p1894
sS'm4m'
p1895
I33
sg13
S'32.530155'
p1896
sS'w4m'
p1897
I15
ssS'mobile'
p1898
(dp1899
g3
S'mobile'
p1900
sS'w4w'
p1901
I0
sg6
g1898
sg7
S'-88.226989'
p1902
sS'm4w'
p1903
I154
sg10
S'AL'
p1904
sS'm4m'
p1905
I77
sg13
S'30.666959'
p1906
sS'w4m'
p1907
I40
ssS'hanford'
p1908
(dp1909
g3
S'hanford'
p1910
sS'w4w'
p1911
I57
sg6
g1908
sg7
S'-119.894727'
p1912
sS'm4w'
p1913
I17
sg10
S'CA'
p1914
sS'm4m'
p1915
I25
sg13
S'36.138861'
p1916
sS'w4m'
p1917
I6
ssS'wichita'
p1918
(dp1919
g3
S'wichita'
p1920
sS'w4w'
p1921
I59
sg6
g1918
sg7
S'-97.480419'
p1922
sS'm4w'
p1923
I314
sg10
S'KS'
p1924
sS'm4m'
p1925
I117
sg13
S'37.693588'
p1926
sS'w4m'
p1927
I67
ssS'lancaster, PA'
p1928
(dp1929
g3
S'lancaster'
p1930
sS'w4w'
p1931
I8
sg6
g1928
sg7
S'-76.297582'
p1932
sS'm4w'
p1933
I150
sg10
S'PA'
p1934
sS'm4m'
p1935
I83
sg13
S'40.0185'
p1936
sS'w4m'
p1937
I37
ssS'los angeles'
p1938
(dp1939
g3
S'los angeles'
p1940
sS'w4w'
p1941
I109
sg6
g1938
sg7
S'-118.298662'
p1942
sS'm4w'
p1943
I1027
sg10
S'CA'
p1944
sS'm4m'
p1945
I3546
sg13
S'33.786594'
p1946
sS'w4m'
p1947
I180
ssS'eastern WV'
p1948
g332
sS'high rockies'
p1949
(dp1950
S'm4w'
p1951
I60
sg6
g1949
sS'm4m'
p1952
I71
sS'w4m'
p1953
I5
sS'w4w'
p1954
I12
ssS'lake of ozarks'
p1955
(dp1956
g6
g1955
sS'm4m'
p1957
I18
sS'w4w'
p1958
I11
sS'w4m'
p1959
I22
sS'm4w'
p1960
I50
ssS'bellingham'
p1961
(dp1962
g3
S'bellingham'
p1963
sS'w4w'
p1964
I20
sg6
g1961
sg7
S'-121.988548'
p1965
sS'm4w'
p1966
I115
sg10
S'WA'
p1967
sS'm4m'
p1968
I28
sg13
S'48.814753'
p1969
sS'w4m'
p1970
I38
ssS'hudson valley'
p1971
(dp1972
S'm4m'
p1973
I407
sg6
g1971
sS'w4w'
p1974
I41
sS'm4w'
p1975
I341
sS'w4m'
p1976
I69
ssS'jacksonville, FL'
p1977
(dp1978
g3
S'jacksonville'
p1979
sS'w4w'
p1980
I102
sg6
g1977
sg7
g1443
sS'm4w'
p1981
I659
sg10
S'FL'
p1982
sS'm4m'
p1983
I1171
sg13
g1443
sS'w4m'
p1984
I133
ssS'jackson, MS'
p1985
(dp1986
g3
S'jackson'
p1987
sS'w4w'
p1988
I54
sg6
g1985
sg7
S'-89.992257'
p1989
sS'm4w'
p1990
I160
sg10
S'MS'
p1991
sS'm4m'
p1992
I102
sg13
S'32.319905'
p1993
sS'w4m'
p1994
I41
ssS'maine'
p1995
(dp1996
g3
S'maine'
p1997
sS'w4w'
p1998
I0
sg6
g1995
sg7
S'-76.046399'
p1999
sS'm4w'
p2000
I500
sg10
S'NY'
p2001
sS'm4m'
p2002
I534
sg13
S'42.253754'
p2003
sS'w4m'
p2004
I81
ssS'cookeville'
p2005
(dp2006
g3
S'cookeville'
p2007
sS'w4w'
p2008
I18
sg6
g2005
sg7
S'-85.469451'
p2009
sS'm4w'
p2010
I41
sg10
S'TN'
p2011
sS'm4m'
p2012
I15
sg13
S'36.182723'
p2013
sS'w4m'
p2014
I19
ssS'lansing'
p2015
(dp2016
g3
S'lansing'
p2017
sS'w4w'
p2018
I66
sg6
g2015
sg7
S'-94.883026'
p2019
sS'm4w'
p2020
I139
sg10
S'KS'
p2021
sS'm4m'
p2022
I94
sg13
S'39.233204'
p2023
sS'w4m'
p2024
I57
ssS'southwest VA'
p2025
g271
sS'hilton head'
p2026
(dp2027
S'w4m'
p2028
I30
sg6
g2026
sS'w4w'
p2029
I32
sS'm4w'
p2030
I33
sS'm4m'
p2031
I28
ssS'boulder'
p2032
(dp2033
g3
S'boulder'
p2034
sS'w4w'
p2035
I15
sg6
g2032
sg7
S'-111.308206'
p2036
sS'm4w'
p2037
I158
sg10
S'UT'
p2038
sS'm4m'
p2039
I106
sg13
S'37.844777'
p2040
sS'w4m'
p2041
I29
ssS'lake charles'
p2042
(dp2043
g3
S'lake charles'
p2044
sS'w4w'
p2045
I74
sg6
g2042
sg7
S'-93.326527'
p2046
sS'm4w'
p2047
I39
sg10
S'LA'
p2048
sS'm4m'
p2049
I28
sg13
S'30.264232'
p2050
sS'w4m'
p2051
I30
ssS'brunswick, GA'
p2052
(dp2053
g3
S'brunswick'
p2054
sS'w4w'
p2055
I40
sg6
g2052
sg7
S'-81.530477'
p2056
sS'm4w'
p2057
I32
sg10
S'GA'
p2058
sS'm4m'
p2059
I32
sg13
S'31.280403'
p2060
sS'w4m'
p2061
I24
ssS'mohave co'
p2062
(dp2063
S'w4m'
p2064
I0
sg6
g2062
sS'm4m'
p2065
I38
sS'm4w'
p2066
I38
sS'w4w'
p2067
I0
ssS'rhode island'
p2068
(dp2069
S'm4m'
p2070
I1204
sg6
g2068
sS'w4w'
p2071
I0
sS'm4w'
p2072
I532
sS'w4m'
p2073
I75
ssS'st louis'
p2074
(dp2075
S'w4m'
p2076
I371
sg6
g2074
sS'w4w'
p2077
I135
sS'm4w'
p2078
I1522
sS'm4m'
p2079
I2804
ssS'columbus, GA'
p2080
(dp2081
g3
S'columbus'
p2082
sS'w4w'
p2083
I22
sg6
g2080
sg7
S'-84.874123'
p2084
sS'm4w'
p2085
I131
sg10
S'GA'
p2086
sS'm4m'
p2087
I58
sg13
S'32.491005'
p2088
sS'w4m'
p2089
I73
ssS'fayetteville, NC'
p2090
(dp2091
g3
S'fayetteville'
p2092
sS'w4w'
p2093
I55
sg6
g2090
sg7
S'-79.011328'
p2094
sS'm4w'
p2095
I284
sg10
S'NC'
p2096
sS'm4m'
p2097
I134
sg13
S'35.05425'
p2098
sS'w4m'
p2099
I191
ssS'northern WV'
p2100
(dp2101
S'w4m'
p2102
I0
sg6
g2100
sS'w4w'
p2103
I38
sS'm4w'
p2104
I37
sS'm4m'
p2105
I0
ssS'south coast'
p2106
(dp2107
S'm4w'
p2108
I109
sg6
g2106
sS'w4w'
p2109
I0
sS'w4m'
p2110
I38
sS'm4m'
p2111
I35
ssS'lexington'
p2112
(dp2113
g3
S'lexington'
p2114
sS'w4w'
p2115
I32
sg6
g2112
sg7
S'-119.638037'
p2116
sS'm4w'
p2117
I347
sg10
S'OR'
p2118
sS'm4m'
p2119
I296
sg13
S'45.493821'
p2120
sS'w4m'
p2121
I79
ssS'terre haute'
p2122
(dp2123
g3
S'terre haute'
p2124
sS'w4w'
p2125
I56
sg6
g2122
sg7
S'-87.410094'
p2126
sS'm4w'
p2127
I36
sg10
S'IN'
p2128
sS'm4m'
p2129
I25
sg13
S'39.433602'
p2130
sS'w4m'
p2131
I37
ssS'kirksville'
p2132
(dp2133
g3
S'kirksville'
p2134
sS'w4w'
p2135
I61
sg6
g2132
sg7
S'-92.609514'
p2136
sS'm4w'
p2137
I8
sg10
S'MO'
p2138
sS'm4m'
p2139
I3
sg13
S'40.165717'
p2140
sS'w4m'
p2141
I4
ssS'northern WI'
p2142
(dp2143
S'm4w'
p2144
I37
sg6
g2142
sS'm4m'
p2145
I0
sS'w4m'
p2146
I0
sS'w4w'
p2147
I38
ssS'northwest KS'
p2148
(dp2149
g6
g2148
sS'm4m'
p2150
I0
sS'w4w'
p2151
I38
sS'm4w'
p2152
I0
sS'w4m'
p2153
I0
ssS'kalamazoo'
p2154
(dp2155
g3
S'kalamazoo'
p2156
sS'w4w'
p2157
I79
sg6
g2154
sg7
g1443
sS'm4w'
p2158
I84
sg10
S'MI'
p2159
sS'm4m'
p2160
I36
sg13
g1443
sS'w4m'
p2161
I26
ssS'jackson, TN'
p2162
(dp2163
g3
S'jackson'
p2164
sS'w4w'
p2165
I50
sg6
g2162
sg7
S'-88.841225'
p2166
sS'm4w'
p2167
I98
sg10
S'TN'
p2168
sS'm4m'
p2169
I63
sg13
S'35.612405'
p2170
sS'w4m'
p2171
I33
ssS'east TX'
p2172
(dp2173
S'w4m'
p2174
I60
sg6
g2172
sS'm4m'
p2175
I106
sS'm4w'
p2176
I224
sS'w4w'
p2177
I24
ssS'roseburg'
p2178
(dp2179
g3
S'roseburg'
p2180
sS'w4w'
p2181
I39
sg6
g2178
sg7
S'-123.360805'
p2182
sS'm4w'
p2183
I37
sg10
S'OR'
p2184
sS'm4m'
p2185
I0
sg13
S'43.053573'
p2186
sS'w4m'
p2187
I0
ssS'yoopers'
p2188
(dp2189
S'm4w'
p2190
I58
sg6
g2188
sS'm4m'
p2191
I37
sS'w4m'
p2192
I15
sS'w4w'
p2193
I52
ssS'hattiesburg'
p2194
(dp2195
g3
S'hattiesburg'
p2196
sS'w4w'
p2197
I47
sg6
g2194
sg7
S'-89.294772'
p2198
sS'm4w'
p2199
I52
sg10
S'MS'
p2200
sS'm4m'
p2201
I27
sg13
S'31.172142'
p2202
sS'w4m'
p2203
I37
ssS'madison'
p2204
(dp2205
g3
S'madison'
p2206
sS'w4w'
p2207
I39
sg6
g2204
sg7
S'-121.972096'
p2208
sS'm4w'
p2209
I338
sg10
S'CA'
p2210
sS'm4m'
p2211
I214
sg13
S'38.671903'
p2212
sS'w4m'
p2213
I75
ssS'ocala'
p2214
(dp2215
g3
S'ocala'
p2216
sS'w4w'
p2217
I0
sg6
g2214
sg7
S'-82.087458'
p2218
sS'm4w'
p2219
I151
sg10
S'FL'
p2220
sS'm4m'
p2221
I75
sg13
S'29.240728'
p2222
sS'w4m'
p2223
I39
ssS'southern WV'
p2224
(dp2225
g6
g2224
sS'm4m'
p2226
I10
sS'w4w'
p2227
I40
sS'w4m'
p2228
I19
sS'm4w'
p2229
I27
ssS'battle creek'
p2230
(dp2231
g3
S'battle creek'
p2232
sS'w4w'
p2233
I81
sg6
g2230
sg7
S'-97.568855'
p2234
sS'm4w'
p2235
I21
sg10
S'NE'
p2236
sS'm4m'
p2237
I16
sg13
S'41.976904'
p2238
sS'w4m'
p2239
I15
ssS'ithaca'
p2240
(dp2241
g3
S'ithaca'
p2242
sS'w4w'
p2243
I79
sg6
g2240
sg7
S'-96.523011'
p2244
sS'm4w'
p2245
I73
sg10
S'NE'
p2246
sS'm4m'
p2247
I66
sg13
S'41.147084'
p2248
sS'w4m'
p2249
I21
ssS'knoxville'
p2250
(dp2251
g3
S'knoxville'
p2252
sS'w4w'
p2253
I64
sg6
g2250
sg7
S'-93.335178'
p2254
sS'm4w'
p2255
I505
sg10
S'AR'
p2256
sS'm4m'
p2257
I651
sg13
S'35.385081'
p2258
sS'w4m'
p2259
I96
ssS'cumberland val'
p2260
(dp2261
g6
g2260
sS'm4m'
p2262
I10
sS'w4w'
p2263
I33
sS'w4m'
p2264
I20
sS'm4w'
p2265
I29
ssS'toledo'
p2266
(dp2267
g3
S'toledo'
p2268
sS'w4w'
p2269
I26
sg6
g2266
sg7
S'-122.794980'
p2270
sS'm4w'
p2271
I248
sg10
S'WA'
p2272
sS'm4m'
p2273
I174
sg13
S'46.456038'
p2274
sS'w4m'
p2275
I63
ssS'reading'
p2276
(dp2277
g3
S'reading'
p2278
sS'w4w'
p2279
I0
sg6
g2276
sg7
S'-96.01436'
p2280
sS'm4w'
p2281
I117
sg10
S'KS'
p2282
sS'm4m'
p2283
I75
sg13
S'38.533232'
p2284
sS'w4m'
p2285
I0
ssS'yuma'
p2286
(dp2287
g3
S'yuma'
p2288
sS'w4w'
p2289
I1
sg6
g2286
sg7
S'-114.074901'
p2290
sS'm4w'
p2291
I53
sg10
S'AZ'
p2292
sS'm4m'
p2293
I50
sg13
S'32.751632'
p2294
sS'w4m'
p2295
I16
ssg1152
g1149
sS'nashville'
p2296
(dp2297
g3
S'nashville'
p2298
sS'w4w'
p2299
I75
sg6
g2296
sg7
S'-93.942206'
p2300
sS'm4w'
p2301
I989
sg10
S'AR'
p2302
sS'm4m'
p2303
I2747
sg13
S'34.024903'
p2304
sS'w4m'
p2305
I191
ssS'boise'
p2306
(dp2307
g3
S'boise'
p2308
sS'w4w'
p2309
I62
sg6
g2306
sg7
S'-116.243984'
p2310
sS'm4w'
p2311
I436
sg10
S'ID'
p2312
sS'm4m'
p2313
I269
sg13
S'43.459855'
p2314
sS'w4m'
p2315
I124
ssS'decatur, IL'
p2316
(dp2317
g3
S'decatur'
p2318
sS'w4w'
p2319
I48
sg6
g2316
sg7
S'-88.981511'
p2320
sS'm4w'
p2321
I19
sg10
S'IL'
p2322
sS'm4m'
p2323
I8
sg13
S'39.853981'
p2324
sS'w4m'
p2325
I14
ssS'butte'
p2326
(dp2327
g3
S'butte'
p2328
sS'w4w'
p2329
I25
sg6
g2326
sg7
S'-98.847065'
p2330
sS'm4w'
p2331
I11
sg10
S'NE'
p2332
sS'm4m'
p2333
I67
sg13
S'42.911492'
p2334
sS'w4m'
p2335
I49
ssS'inland empire'
p2336
(dp2337
S'w4m'
p2338
I307
sg6
g2336
sS'w4w'
p2339
I165
sS'm4w'
p2340
I1711
sS'm4m'
p2341
I4668
ssS'las vegas'
p2342
(dp2343
g3
S'las vegas'
p2344
sS'w4w'
p2345
I272
sg6
g2342
sg7
S'-114.972061'
p2346
sS'm4w'
p2347
I1946
sg10
S'NV'
p2348
sS'm4m'
p2349
I5162
sg13
S'35.927901'
p2350
sS'w4m'
p2351
I268
ssS'statesboro'
p2352
(dp2353
g3
S'statesboro'
p2354
sS'w4w'
p2355
I18
sg6
g2352
sg7
S'-81.715799'
p2356
sS'm4w'
p2357
I33
sg10
S'GA'
p2358
sS'm4m'
p2359
I15
sg13
S'32.450032'
p2360
sS'w4m'
p2361
I15
ssS'lawton'
p2362
(dp2363
g3
S'lawton'
p2364
sS'w4w'
p2365
I12
sg6
g2362
sg7
S'-98.387482'
p2366
sS'm4w'
p2367
I57
sg10
S'OK'
p2368
sS'm4m'
p2369
I24
sg13
S'34.560957'
p2370
sS'w4m'
p2371
I38
ssS'outer banks'
p2372
(dp2373
S'w4m'
p2374
I0
sg6
g2372
sS'w4w'
p2375
I0
sS'm4w'
p2376
I0
sS'm4m'
p2377
I0
ssS'baltimore'
p2378
(dp2379
g3
S'baltimore'
p2380
sS'w4w'
p2381
I154
sg6
g2378
sg7
S'-82.665141'
p2382
sS'm4w'
p2383
I1051
sg10
S'OH'
p2384
sS'm4m'
p2385
I2701
sg13
S'39.77796'
p2386
sS'w4m'
p2387
I218
ssS'sierra vista'
p2388
(dp2389
g3
S'sierra vista'
p2390
sS'w4w'
p2391
I0
sg6
g2388
sg7
S'-109.754263'
p2392
sS'm4w'
p2393
I0
sg10
S'AZ'
p2394
sS'm4m'
p2395
I0
sg13
S'31.880077'
p2396
sS'w4m'
p2397
I0
ssS'san luis obispo'
p2398
(dp2399
g3
S'san luis obispo'
p2400
sS'w4w'
p2401
I36
sg6
g2398
sg7
S'-120.455345'
p2402
sS'm4w'
p2403
I143
sg10
S'CA'
p2404
sS'm4m'
p2405
I142
sg13
S'35.347065'
p2406
sS'w4m'
p2407
I36
ssS'olympic pen'
p2408
(dp2409
S'm4w'
p2410
I0
sg6
g2408
sS'w4w'
p2411
I0
sS'w4m'
p2412
I0
sS'm4m'
p2413
I0
ssS'meadville'
p2414
(dp2415
g3
S'meadville'
p2416
sS'w4w'
p2417
I37
sg6
g2414
sg7
S'-93.295805'
p2418
sS'm4w'
p2419
I0
sg10
S'MO'
p2420
sS'm4m'
p2421
I0
sg13
S'39.795407'
p2422
sS'w4m'
p2423
I0
ssS'southeast IA'
p2424
(dp2425
S'w4m'
p2426
I10
sg6
g2424
sS'w4w'
p2427
I79
sS'm4w'
p2428
I24
sS'm4m'
p2429
I10
ssS'north dakota'
p2430
(dp2431
S'm4w'
p2432
I74
sg6
g2430
sS'm4m'
p2433
I0
sS'w4m'
p2434
I0
sS'w4w'
p2435
I0
ssS'treasure coast'
p2436
(dp2437
S'w4m'
p2438
I46
sg6
g2436
sS'm4m'
p2439
I149
sS'm4w'
p2440
I189
sS'w4w'
p2441
I13
ssS'corpus christi'
p2442
(dp2443
g3
S'corpus christi'
p2444
sS'w4w'
p2445
I33
sg6
g2442
sg7
S'-97.463213'
p2446
sS'm4w'
p2447
I178
sg10
S'TX'
p2448
sS'm4m'
p2449
I176
sg13
S'27.777'
p2450
sS'w4m'
p2451
I45
ssS'colo springs'
p2452
(dp2453
S'm4w'
p2454
I528
sg6
g2452
sS'm4m'
p2455
I309
sS'w4m'
p2456
I185
sS'w4w'
p2457
I59
ssS'tuscarawas co'
p2458
(dp2459
g3
S'tuscarawas'
p2460
sS'w4w'
p2461
I45
sg6
g2458
sg7
S'-81.406883'
p2462
sS'm4w'
p2463
I14
sg10
S'OH'
p2464
sS'm4m'
p2465
I6
sg13
S'40.395881'
p2466
sS'w4m'
p2467
I11
ssS'odessa'
p2468
(dp2469
g3
S'odessa'
p2470
sS'w4w'
p2471
I39
sg6
g2468
sg7
S'-118.658816'
p2472
sS'm4w'
p2473
I153
sg10
S'WA'
p2474
sS'm4m'
p2475
I76
sg13
S'47.344402'
p2476
sS'w4m'
p2477
I40
ssS'huntsville'
p2478
(dp2479
g3
S'huntsville'
p2480
sS'w4w'
p2481
I29
sg6
g2478
sg7
S'-111.715855'
p2482
sS'm4w'
p2483
I215
sg10
S'UT'
p2484
sS'm4m'
p2485
I152
sg13
S'41.266035'
p2486
sS'w4m'
p2487
I49
ssS'erie, PA'
p2488
(dp2489
g3
S'erie'
p2490
sS'w4w'
p2491
I23
sg6
g2488
sg7
S'-80.064915'
p2492
sS'm4w'
p2493
I80
sg10
S'PA'
p2494
sS'm4m'
p2495
I44
sg13
S'42.182748'
p2496
sS'w4m'
p2497
I57
ssS'williamsport'
p2498
(dp2499
g3
S'williamsport'
p2500
sS'w4w'
p2501
I69
sg6
g2498
sg7
S'-87.403882'
p2502
sS'm4w'
p2503
I43
sg10
S'IN'
p2504
sS'm4m'
p2505
I52
sg13
S'40.314172'
p2506
sS'w4m'
p2507
I24
ssS'atlanta'
p2508
(dp2509
g3
S'atlanta'
p2510
sS'w4w'
p2511
I809
sg6
g2508
sg7
S'-115.253751'
p2512
sS'm4w'
p2513
I3263
sg10
S'ID'
p2514
sS'm4m'
p2515
I7901
sg13
S'43.847915'
p2516
sS'w4m'
p2517
I771
ssS'stillwater'
p2518
(dp2519
g3
S'stillwater'
p2520
sS'w4w'
p2521
I37
sg6
g2518
sg7
S'-96.987458'
p2522
sS'm4w'
p2523
I49
sg10
S'OK'
p2524
sS'm4m'
p2525
I22
sg13
S'36.093665'
p2526
sS'w4m'
p2527
I32
ssS'mason city'
p2528
(dp2529
g3
S'mason city'
p2530
sS'w4w'
p2531
I0
sg6
g2528
sg7
S'-99.37871'
p2532
sS'm4w'
p2533
I0
sg10
S'NE'
p2534
sS'm4m'
p2535
I36
sg13
S'41.283369'
p2536
sS'w4m'
p2537
I0
ssS'bowling green'
p2538
(dp2539
g3
S'bowling green'
p2540
sS'w4w'
p2541
I41
sg6
g2538
sg7
S'-91.174859'
p2542
sS'm4w'
p2543
I58
sg10
S'MO'
p2544
sS'm4m'
p2545
I44
sg13
S'39.316369'
p2546
sS'w4m'
p2547
I27
ssS'bemidji'
p2548
(dp2549
g3
S'bemidji'
p2550
sS'w4w'
p2551
I52
sg6
g2548
sg7
S'-94.822154'
p2552
sS'm4w'
p2553
I11
sg10
S'MN'
p2554
sg13
S'47.625699'
p2555
sS'w4m'
p2556
I11
ssS'des moines'
p2557
(dp2558
g3
S'des moines'
p2559
sS'w4w'
p2560
I47
sg6
g2557
sg7
S'-103.505541'
p2561
sS'm4w'
p2562
I333
sg10
S'NM'
p2563
sS'm4m'
p2564
I125
sg13
S'36.369783'
p2565
sS'w4m'
p2566
I106
ssS'oklahoma city'
p2567
(dp2568
g3
S'oklahoma city'
p2569
sS'w4w'
p2570
I73
sg6
g2567
sg7
S'-97.407537'
p2571
sS'm4w'
p2572
I825
sg10
S'OK'
p2573
sS'm4m'
p2574
I1244
sg13
S'35.551409'
p2575
sS'w4m'
p2576
I150
ssS'northwest GA'
p2577
(dp2578
S'm4m'
p2579
I37
sg6
g2577
sS'w4w'
p2580
I0
sS'm4w'
p2581
I37
sS'w4m'
p2582
I0
ssS'poconos'
p2583
(dp2584
S'm4w'
p2585
I151
sg6
g2583
sS'w4w'
p2586
I75
sS'w4m'
p2587
I0
sS'm4m'
p2588
I0
ssS'iowa city'
p2589
(dp2590
g3
S'iowa city'
p2591
sS'w4w'
p2592
I51
sg6
g2589
sg7
S'-91.589264'
p2593
sS'm4w'
p2594
I54
sg10
S'IA'
p2595
sS'm4m'
p2596
I12
sg13
S'41.600628'
p2597
sS'w4m'
p2598
I21
ssS'elmira'
p2599
(dp2600
g3
S'elmira'
p2601
sS'w4w'
p2602
I53
sg6
g2599
sg7
S'-123.388216'
p2603
sS'm4w'
p2604
I58
sg10
S'OR'
p2605
sS'm4m'
p2606
I17
sg13
S'44.097363'
p2607
sS'w4m'
p2608
I15
ssS'seattle'
p2609
(dp2610
g3
S'seattle'
p2611
sS'w4w'
p2612
I38
sg6
g2609
sg7
S'-122.264256'
p2613
sS'm4w'
p2614
I258
sg10
S'WA'
p2615
sS'm4m'
p2616
I400
sg13
S'47.776875'
p2617
sS'w4m'
p2618
I77
ssS'salina'
p2619
(dp2620
g3
S'salina'
p2621
sS'w4w'
p2622
I38
sg6
g2619
sg7
S'-111.908156'
p2623
sS'm4w'
p2624
I0
sg10
S'UT'
p2625
sS'm4m'
p2626
I0
sg13
S'38.921403'
p2627
sS'w4m'
p2628
I0
ssS'kalispell'
p2629
(dp2630
g3
S'kalispell'
p2631
sS'w4w'
p2632
I58
sg6
g2629
sg7
S'-114.256123'
p2633
sS'm4w'
p2634
I39
sg10
S'MT'
p2635
sS'm4m'
p2636
I8
sg13
S'48.240382'
p2637
sS'w4m'
p2638
I16
ssS'annapolis'
p2639
(dp2640
g3
S'annapolis'
p2641
sS'w4w'
p2642
I4
sg6
g2639
sg7
S'-123.386924'
p2643
sS'm4w'
p2644
I71
sg10
S'CA'
p2645
sS'm4m'
p2646
I73
sg13
S'38.710387'
p2647
sS'w4m'
p2648
I41
ssS'wilmington, NC'
p2649
(dp2650
g3
S'wilmington'
p2651
sS'w4w'
p2652
I20
sg6
g2649
sg7
S'-77.91859'
p2653
sS'm4w'
p2654
I189
sg10
S'NC'
p2655
sS'm4m'
p2656
I81
sg13
S'34.127458'
p2657
sS'w4m'
p2658
I63
ssS'myrtle beach'
p2659
(dp2660
g3
S'myrtle beach'
p2661
sS'w4w'
p2662
I0
sg6
g2659
sg7
g1443
sS'm4w'
p2663
I181
sg10
S'SC'
p2664
sS'm4m'
p2665
I144
sg13
g1443
sS'w4m'
p2666
I38
ssS'utica'
p2667
(dp2668
g3
S'utica'
p2669
sS'w4w'
p2670
I59
sg6
g2667
sg7
S'-97.292178'
p2671
sS'm4w'
p2672
I89
sg10
S'NE'
p2673
sS'm4m'
p2674
I38
sg13
S'40.938023'
p2675
sS'w4m'
p2676
I31
ssS'ashtabula'
p2677
(dp2678
g3
S'ashtabula'
p2679
sS'w4w'
p2680
I48
sg6
g2677
sg7
S'-80.955313'
p2681
sS'm4w'
p2682
I32
sg10
S'OH'
p2683
sS'm4m'
p2684
I6
sg13
S'41.730146'
p2685
sS'w4m'
p2686
I5
ssS'chautauqua'
p2687
(dp2688
g3
S'chautauqua'
p2689
sS'w4w'
p2690
I72
sg6
g2687
sg7
S'-96.178281'
p2691
sS'm4w'
p2692
I30
sg10
S'KS'
p2693
sS'm4m'
p2694
I13
sg13
S'37.026243'
p2695
sS'w4m'
p2696
I14
ssS'indianapolis'
p2697
(dp2698
g3
S'indianapolis'
p2699
sS'w4w'
p2700
I88
sg6
g2697
sg7
S'-86.132837'
p2701
sS'm4w'
p2702
I703
sg10
S'IN'
p2703
sS'm4m'
p2704
I1402
sg13
S'39.779492'
p2705
sS'w4m'
p2706
I156
ssS'columbia'
p2707
(dp2708
g3
S'columbia'
p2709
sS'w4w'
p2710
I47
sg6
g2707
sg7
S'-120.363545'
p2711
sS'm4w'
p2712
I328
sg10
S'CA'
p2713
sS'm4m'
p2714
I480
sg13
S'38.061003'
p2715
sS'w4m'
p2716
I115
ssS'zanesville'
p2717
(dp2718
g3
S'zanesville'
p2719
sS'w4w'
p2720
I70
sg6
g2717
sg7
S'-85.282422'
p2721
sS'm4w'
p2722
I22
sg10
S'IN'
p2723
sS'm4m'
p2724
I14
sg13
S'40.918797'
p2725
sS'w4m'
p2726
I14
ssS'sacramento'
p2727
(dp2728
g3
S'sacramento'
p2729
sS'w4w'
p2730
I0
sg6
g2727
sg7
S'-121.444429'
p2731
sS'm4w'
p2732
I142
sg10
S'CA'
p2733
sS'm4m'
p2734
I357
sg13
S'38.377411'
p2735
sS'w4m'
p2736
I37
ssS'kansas city'
p2737
(dp2738
g3
S'kansas city'
p2739
sS'w4w'
p2740
I85
sg6
g2737
sg7
S'-94.749538'
p2741
sS'm4w'
p2742
I1121
sg10
S'KS'
p2743
sS'm4m'
p2744
I2159
sg13
S'39.096551'
p2745
sS'w4m'
p2746
I249
ssS'washington, DC'
p2747
(dp2748
g3
S'washington'
p2749
sS'w4w'
p2750
I20
sg6
g2747
sg7
S'-77.014647'
p2751
sS'm4w'
p2752
I279
sg10
S'DC'
p2753
sS'm4m'
p2754
I991
sg13
S'38.893311'
p2755
sS'w4m'
p2756
I82
ssS'gold country'
p2757
(dp2758
S'w4m'
p2759
I16
sg6
g2757
sS'w4w'
p2760
I22
sS'm4w'
p2761
I44
sS'm4m'
p2762
I46
ssS'chattanooga'
p2763
(dp2764
g3
S'chattanooga'
p2765
sS'w4w'
p2766
I27
sg6
g2763
sg7
S'-98.654352'
p2767
sS'm4w'
p2768
I218
sg10
S'OK'
p2769
sS'm4m'
p2770
I202
sg13
S'34.424316'
p2771
sS'w4m'
p2772
I74
ssS'south bend'
p2773
(dp2774
g3
S'south bend'
p2775
sS'w4w'
p2776
I0
sg6
g2773
sg7
S'-123.834262'
p2777
sS'm4w'
p2778
I150
sg10
S'WA'
p2779
sS'm4m'
p2780
I75
sg13
S'46.588006'
p2781
sS'w4m'
p2782
I39
ssS'dallas'
p2783
(dp2784
g3
S'dallas'
p2785
sS'w4w'
p2786
I399
sg6
g2783
sg7
S'-123.337291'
p2787
sS'm4w'
p2788
I3178
sg10
S'OR'
p2789
sS'm4m'
p2790
I9108
sg13
S'44.928092'
p2791
sS'w4m'
p2792
I745
ssS'el paso'
p2793
(dp2794
g3
S'el paso'
p2795
sS'w4w'
p2796
I56
sg6
g2793
sg7
S'-106.299987'
p2797
sS'm4w'
p2798
I462
sg10
S'TX'
p2799
sS'm4m'
p2800
I866
sg13
S'31.694842'
p2801
sS'w4m'
p2802
I96
ssS'grand rapids'
p2803
(dp2804
g3
S'grand rapids'
p2805
sS'w4w'
p2806
I68
sg6
g2803
sg7
S'-93.921429'
p2807
sS'm4w'
p2808
I345
sg10
S'MN'
p2809
sS'm4m'
p2810
I136
sg13
S'47.087782'
p2811
sS'w4m'
p2812
I69
ssS'sheboygan, WI'
p2813
(dp2814
g3
S'sheboygan'
p2815
sS'w4w'
p2816
I37
sg6
g2813
sg7
S'-87.860803'
p2817
sS'm4w'
p2818
I0
sg10
S'WI'
p2819
sS'm4m'
p2820
I0
sg13
S'43.775428'
p2821
sS'w4m'
p2822
I0
ssg274
g271
sS'twin falls'
p2823
(dp2824
g3
S'twin falls'
p2825
sS'w4w'
p2826
I71
sg6
g2823
sg7
S'-114.519536'
p2827
sS'm4w'
p2828
I52
sg10
S'ID'
p2829
sS'm4m'
p2830
I16
sg13
S'42.456273'
p2831
sS'w4m'
p2832
I18
ssS'columbus, OH'
p2833
(dp2834
g3
S'columbus'
p2835
sS'w4w'
p2836
I70
sg6
g2833
sg7
S'-83.011389'
p2837
sS'm4w'
p2838
I889
sg10
S'OH'
p2839
sS'm4m'
p2840
I1746
sg13
S'39.969036'
p2841
sS'w4m'
p2842
I195
ssS'savannah'
p2843
(dp2844
g3
S'savannah'
p2845
sS'w4w'
p2846
I39
sg6
g2843
sg7
S'-94.837827'
p2847
sS'm4w'
p2848
I220
sg10
S'MO'
p2849
sS'm4m'
p2850
I152
sg13
S'39.953094'
p2851
sS'w4m'
p2852
I38
ssS'gainesville'
p2853
(dp2854
g3
S'gainesville'
p2855
sS'w4w'
p2856
I19
sg6
g2853
sg7
S'-97.03692'
p2857
sS'm4w'
p2858
I147
sg10
S'TX'
p2859
sS'm4m'
p2860
I184
sg13
S'33.610384'
p2861
sS'w4m'
p2862
I30
ssS'oregon coast'
p2863
(dp2864
S'w4m'
p2865
I0
sg6
g2863
sS'w4w'
p2866
I38
sS'm4w'
p2867
I37
sS'm4m'
p2868
I0
ssS'southern MD'
p2869
(dp2870
S'm4w'
p2871
I65
sg6
g2869
sS'm4m'
p2872
I77
sS'w4m'
p2873
I37
sS'w4w'
p2874
I11
ssS'mcallen'
p2875
(dp2876
g3
S'mcallen'
p2877
sS'w4w'
p2878
I40
sg6
g2875
sg7
S'-98.224206'
p2879
sS'm4w'
p2880
I224
sg10
S'TX'
p2881
sS'm4m'
p2882
I267
sg13
S'26.409709'
p2883
sS'w4m'
p2884
I80
ssS'southeast MO'
p2885
(dp2886
g6
g2885
sS'm4m'
p2887
I29
sS'w4w'
p2888
I26
sS'w4m'
p2889
I30
sS'm4w'
p2890
I80
ssS'springfield, IL'
p2891
(dp2892
g3
S'springfield'
p2893
sS'w4w'
p2894
I38
sg6
g2891
sg7
S'-89.606017'
p2895
sS'm4w'
p2896
I77
sg10
S'IL'
p2897
sS'm4m'
p2898
I62
sg13
S'39.749457'
p2899
sS'w4m'
p2900
I28
ssS'winchester'
p2901
(dp2902
g3
S'winchester'
p2903
sS'w4w'
p2904
I2
sg6
g2901
sg7
S'-123.325617'
p2905
sS'm4w'
p2906
I76
sg10
S'OR'
p2907
sS'm4m'
p2908
I15
sg13
S'43.333141'
p2909
sS'w4m'
p2910
I19
ssg335
g332
sS'kokomo'
p2911
(dp2912
g3
S'kokomo'
p2913
sS'w4w'
p2914
I51
sg6
g2911
sg7
S'-86.11894'
p2915
sS'm4w'
p2916
I40
sg10
S'IN'
p2917
sS'm4m'
p2918
I9
sg13
S'40.469625'
p2919
sS'w4m'
p2920
I17
ssS'eastern CT'
p2921
g332
sS'jacksonville, NC'
p2922
(dp2923
g3
S'jacksonville'
p2924
sS'w4w'
p2925
I24
sg6
g2922
sg7
S'-77.444847'
p2926
sS'm4w'
p2927
I153
sg10
S'NC'
p2928
sS'm4m'
p2929
I38
sg13
S'34.720825'
p2930
sS'w4m'
p2931
I120
ssS'amarillo'
p2932
(dp2933
g3
S'amarillo'
p2934
sS'w4w'
p2935
I110
sg6
g2932
sg7
S'-101.895089'
p2936
sS'm4w'
p2937
I177
sg10
S'TX'
p2938
sS'm4m'
p2939
I156
sg13
S'35.401475'
p2940
sS'w4m'
p2941
I102
ssS'jonesboro'
p2942
(dp2943
g3
S'jonesboro'
p2944
sS'w4w'
p2945
I27
sg6
g2942
sg7
S'-97.845634'
p2946
sS'm4w'
p2947
I55
sg10
S'TX'
p2948
sS'm4m'
p2949
I34
sg13
S'31.559947'
p2950
sS'w4m'
p2951
I22
ssS'SF bay area'
p2952
(dp2953
S'm4m'
p2954
I2376
sg6
g2952
sS'w4w'
p2955
I54
sS'w4m'
p2956
I179
sS'm4w'
p2957
I804
ssS'fayetteville, AR'
p2958
(dp2959
g3
S'fayetteville'
p2960
sS'w4w'
p2961
I26
sg6
g2958
sg7
S'-94.309322'
p2962
sS'm4w'
p2963
I198
sg10
S'AR'
p2964
sS'm4m'
p2965
I111
sg13
S'36.087732'
p2966
sS'w4m'
p2967
I67
ssS'lincoln'
p2968
(dp2969
g3
S'lincoln'
p2970
sS'w4w'
p2971
I78
sg6
g2968
sg7
S'-118.399551'
p2972
sS'm4w'
p2973
I155
sg10
S'WA'
p2974
sS'm4m'
p2975
I38
sg13
S'47.60894'
p2976
sS'w4m'
p2977
I0
ssS'northwest CT'
p2978
(dp2979
S'm4w'
p2980
I36
sg6
g2978
sS'w4w'
p2981
I36
sS'w4m'
p2982
I0
sS'm4m'
p2983
I0
ssS'baton rouge'
p2984
(dp2985
g3
S'baton rouge'
p2986
sS'w4w'
p2987
I40
sg6
g2984
sg7
S'-91.080373'
p2988
sS'm4w'
p2989
I275
sg10
S'LA'
p2990
sS'm4m'
p2991
I415
sg13
S'30.51589'
p2992
sS'w4m'
p2993
I91
ssS'orlando'
p2994
(dp2995
g3
S'orlando'
p2996
sS'w4w'
p2997
I116
sg6
g2994
sg7
S'-97.408181'
p2998
sS'm4w'
p2999
I1263
sg10
S'OK'
p3000
sS'm4m'
p3001
I3544
sg13
S'35.944569'
p3002
sS'w4m'
p3003
I192
ssS'manhattan'
p3004
(dp3005
g3
S'manhattan'
p3006
sS'w4w'
p3007
I37
sg6
g3004
sg7
S'-116.310045'
p3008
sS'm4w'
p3009
I38
sg10
S'NV'
p3010
sS'm4m'
p3011
I0
sg13
S'38.702281'
p3012
sS'w4m'
p3013
I0
ssS'duluth'
p3014
(dp3015
g3
S'duluth'
p3016
sS'w4w'
p3017
I45
sg6
g3014
sg7
S'-92.442797'
p3018
sS'm4w'
p3019
I78
sg10
S'MN'
p3020
sS'm4m'
p3021
I25
sg13
S'47.640367'
p3022
sS'w4m'
p3023
I25
ssS'owensboro'
p3024
(dp3025
g3
S'owensboro'
p3026
sS'w4w'
p3027
I39
sg6
g3024
sg7
S'-87.112823'
p3028
sS'm4w'
p3029
I0
sg10
S'KY'
p3030
sS'm4m'
p3031
I0
sg13
S'37.745491'
p3032
sS'w4m'
p3033
I0
ssS'salt lake'
p3034
(dp3035
S'm4w'
p3036
I624
sg6
g3034
sS'w4w'
p3037
I38
sS'w4m'
p3038
I76
sS'm4m'
p3039
I1888
ssS'chico'
p3040
(dp3041
g3
S'chico'
p3042
sS'w4w'
p3043
I38
sg6
g3040
sg7
S'-121.572986'
p3044
sS'm4w'
p3045
I96
sg10
S'CA'
p3046
sS'm4m'
p3047
I57
sg13
S'39.723898'
p3048
sS'w4m'
p3049
I23
ssS'brainerd'
p3050
(dp3051
g3
S'brainerd'
p3052
sS'w4w'
p3053
I51
sg6
g3050
sg7
S'-94.099983'
p3054
sS'm4w'
p3055
I26
sg10
S'MN'
p3056
sS'm4m'
p3057
I5
sg13
S'46.350195'
p3058
sS'w4m'
p3059
I5
ssS'elko'
p3060
(dp3061
g3
S'elko'
p3062
sS'w4w'
p3063
I72
sg6
g3060
sg7
S'-115.529596'
p3064
sS'm4w'
p3065
I15
sg10
S'NV'
p3066
sS'm4m'
p3067
I2
sg13
S'41.059414'
p3068
sS'w4m'
p3069
I4
ssS'central LA'
p3070
g1149
sS'la crosse'
p3071
(dp3072
g3
S'la crosse'
p3073
sS'w4w'
p3074
I49
sg6
g3071
sg7
S'-99.300546'
p3075
sS'm4w'
p3076
I86
sg10
S'KS'
p3077
sS'm4m'
p3078
I22
sg13
S'38.531867'
p3079
sS'w4m'
p3080
I45
ssS'altoona'
p3081
(dp3082
g3
S'altoona'
p3083
sS'w4w'
p3084
I134
sg6
g3081
sg7
S'-95.661801'
p3085
sS'm4w'
p3086
I178
sg10
S'KS'
p3087
sS'm4m'
p3088
I114
sg13
S'37.525023'
p3089
sS'w4m'
p3090
I64
ssS'cleveland'
p3091
(dp3092
g3
S'cleveland'
p3093
sS'w4w'
p3094
I86
sg6
g3091
sg7
S'-105.382548'
p3095
sS'm4w'
p3096
I712
sg10
S'NM'
p3097
sS'm4m'
p3098
I1575
sg13
S'36.007478'
p3099
sS'w4m'
p3100
I134
ssS'new haven'
p3101
(dp3102
g3
S'new haven'
p3103
sS'w4w'
p3104
I0
sg6
g3101
sg7
S'-91.247283'
p3105
sS'm4w'
p3106
I287
sg10
S'MO'
p3107
sS'm4m'
p3108
I583
sg13
S'38.558487'
p3109
sS'w4m'
p3110
I39
ssS'delaware'
p3111
(dp3112
g3
S'delaware'
p3113
sS'w4w'
p3114
I36
sg6
g3111
sg7
S'-95.641981'
p3115
sS'm4w'
p3116
I352
sg10
S'OK'
p3117
sS'm4m'
p3118
I945
sg13
S'36.777208'
p3119
sS'w4m'
p3120
I69
ssS'fort wayne'
p3121
(dp3122
g3
S'fort wayne'
p3123
sS'w4w'
p3124
I69
sg6
g3121
sg7
S'-85.070713'
p3125
sS'm4w'
p3126
I196
sg10
S'IN'
p3127
sS'm4m'
p3128
I75
sg13
S'41.093763'
p3129
sS'w4m'
p3130
I59
ssS'siskiyou co'
p3131
(dp3132
S'm4w'
p3133
I0
sg6
g3131
sS'w4w'
p3134
I37
sS'w4m'
p3135
I0
sS'm4m'
p3136
I0
ssS'moses lake'
p3137
(dp3138
g3
S'moses lake'
p3139
sS'w4w'
p3140
I39
sg6
g3137
sg7
S'-119.298979'
p3141
sS'm4w'
p3142
I0
sg10
S'WA'
p3143
sS'm4m'
p3144
I0
sg13
S'47.180684'
p3145
sS'w4m'
p3146
I0
ssg1030
g1027
sS'st augustine'
p3147
(dp3148
S'm4w'
p3149
I42
sg6
g3147
sS'm4m'
p3150
I20
sS'w4m'
p3151
I10
sS'w4w'
p3152
I42
ssS'binghamton'
p3153
(dp3154
g3
S'binghamton'
p3155
sS'w4w'
p3156
I55
sg6
g3153
sg7
S'-75.922159'
p3157
sS'm4w'
p3158
I89
sg10
S'NY'
p3159
sS'm4m'
p3160
I29
sg13
S'42.173709'
p3161
sS'w4m'
p3162
I20
ssS'charleston, WV'
p3163
(dp3164
g3
S'charleston'
p3165
sS'w4w'
p3166
I31
sg6
g3163
sg7
S'-81.554655'
p3167
sS'm4w'
p3168
I56
sg10
S'WV'
p3169
sS'm4m'
p3170
I43
sg13
S'38.296818'
p3171
sS'w4m'
p3172
I31
ssS'anchorage'
p3173
(dp3174
g3
S'anchorage'
p3175
sS'w4w'
p3176
I22
sg6
g3173
sg7
S'-149.440311'
p3177
sS'm4w'
p3178
I273
sg10
S'AK'
p3179
sS'm4m'
p3180
I138
sg13
S'61.108864'
p3181
sS'w4m'
p3182
I77
ssS'topeka'
p3183
(dp3184
g3
S'topeka'
p3185
sS'w4w'
p3186
I66
sg6
g3183
sg7
S'-95.769657'
p3187
sS'm4w'
p3188
I74
sg10
S'KS'
p3189
sS'm4m'
p3190
I14
sg13
S'39.042939'
p3191
sS'w4m'
p3192
I20
ssS'joplin'
p3193
(dp3194
g3
S'joplin'
p3195
sS'w4w'
p3196
I49
sg6
g3193
sg7
S'-94.374452'
p3197
sS'm4w'
p3198
I107
sg10
S'MO'
p3199
sS'm4m'
p3200
I29
sg13
S'37.099335'
p3201
sS'w4m'
p3202
I45
ssS'quad cities'
p3203
(dp3204
S'm4w'
p3205
I110
sg6
g3203
sS'w4w'
p3206
I37
sS'w4m'
p3207
I0
sS'm4m'
p3208
I0
ssS'greensboro'
p3209
(dp3210
g3
S'greensboro'
p3211
sS'w4w'
p3212
I66
sg6
g3209
sg7
S'-85.464036'
p3213
sS'm4w'
p3214
I356
sg10
S'IN'
p3215
sS'm4m'
p3216
I625
sg13
S'39.878933'
p3217
sS'w4m'
p3218
I113
ssS'skagit'
p3219
(dp3220
S'm4w'
p3221
I38
sg6
g3219
sS'w4w'
p3222
I0
sS'w4m'
p3223
I0
sS'm4m'
p3224
I0
ssS'eastern NC'
p3225
g332
sS'fredericksburg'
p3226
(dp3227
g3
S'fredericksburg'
p3228
sS'w4w'
p3229
I16
sg6
g3226
sg7
S'-98.8936'
p3230
sS'm4w'
p3231
I184
sg10
S'TX'
p3232
sS'm4m'
p3233
I103
sg13
S'30.313385'
p3234
sS'w4m'
p3235
I54
ssS'pullman'
p3236
(dp3237
g3
S'pullman'
p3238
sS'w4w'
p3239
I37
sg6
g3236
sg7
S'-117.644337'
p3240
sS'm4w'
p3241
I36
sg10
S'WA'
p3242
sS'm4m'
p3243
I0
sg13
S'46.838747'
p3244
sS'w4m'
p3245
I0
ssS'southern IL'
p3246
(dp3247
S'm4w'
p3248
I104
sg6
g3246
sS'm4m'
p3249
I52
sS'w4m'
p3250
I45
sS'w4w'
p3251
I30
ssS'orange co'
p3252
(dp3253
g3
S'orange'
p3254
sS'w4w'
p3255
I112
sg6
g3252
sg7
S'-117.769442'
p3256
sS'm4w'
p3257
I2025
sg10
S'CA'
p3258
sS'm4m'
p3259
I6923
sg13
S'33.640302'
p3260
sS'w4m'
p3261
I297
ssS'south dakota'
p3262
(dp3263
S'w4m'
p3264
I38
sg6
g3262
sS'm4m'
p3265
I36
sS'm4w'
p3266
I0
sS'w4w'
p3267
I0
ssS'waco'
p3268
(dp3269
g3
S'waco'
p3270
sS'w4w'
p3271
I11
sg6
g3268
sg7
S'-97.16148'
p3272
sS'm4w'
p3273
I78
sg10
S'TX'
p3274
sS'm4m'
p3275
I81
sg13
S'31.541116'
p3276
sS'w4m'
p3277
I40
ssS'chambana'
p3278
(dp3279
S'm4w'
p3280
I96
sg6
g3278
sS'w4w'
p3281
I43
sS'w4m'
p3282
I50
sS'm4m'
p3283
I130
ssS'southeast AK'
p3284
(dp3285
g6
g3284
sS'm4m'
p3286
I2
sS'm4w'
p3287
I18
sS'w4m'
p3288
I9
ssS'philadelphia'
p3289
(dp3290
g3
S'philadelphia'
p3291
sS'w4w'
p3292
I222
sg6
g3289
sg7
S'-91.738022'
p3293
sS'm4w'
p3294
I1704
sg10
S'MO'
p3295
sS'm4m'
p3296
I6040
sg13
S'39.82473'
p3297
sS'w4m'
p3298
I297
ssS'daytona beach'
p3299
(dp3300
g3
S'daytona beach'
p3301
sS'w4w'
p3302
I17
sg6
g3299
sg7
S'-81.172169'
p3303
sS'm4w'
p3304
I256
sg10
S'FL'
p3305
sS'm4m'
p3306
I183
sg13
S'29.022729'
p3307
sS'w4m'
p3308
I60
ssS'sioux city'
p3309
(dp3310
g3
S'sioux city'
p3311
sS'w4w'
p3312
I74
sg6
g3309
sg7
S'-96.378007'
p3313
sS'm4w'
p3314
I37
sg10
S'IA'
p3315
sS'm4m'
p3316
I0
sg13
S'42.423688'
p3317
sS'w4m'
p3318
I0
ssS'tippecanoe'
p3319
(dp3320
g3
S'tippecanoe'
p3321
sS'w4w'
p3322
I56
sg6
g3319
sg7
S'-86.12282'
p3323
sS'm4w'
p3324
I71
sg10
S'IN'
p3325
sS'm4m'
p3326
I35
sg13
S'41.215971'
p3327
sS'w4m'
p3328
I29
ssS'laredo'
p3329
(dp3330
g3
S'laredo'
p3331
sS'w4w'
p3332
I32
sg6
g3329
sg7
S'-99.505138'
p3333
sS'm4w'
p3334
I32
sg10
S'TX'
p3335
sS'm4m'
p3336
I28
sg13
S'27.732094'
p3337
sS'w4m'
p3338
I19
ssS'palm springs'
p3339
(dp3340
g3
S'palm springs'
p3341
sS'w4w'
p3342
I0
sg6
g3339
sg7
S'-116.055617'
p3343
sS'm4w'
p3344
I143
sg10
S'CA'
p3345
sS'm4m'
p3346
I988
sg13
S'33.752886'
p3347
sS'w4m'
p3348
I0
ssS'yuba'
p3349
(dp3350
S'w4m'
p3351
I13
sg6
g3349
sS'm4m'
p3352
I18
sS'm4w'
p3353
I30
sS'w4w'
p3354
I9
ssS'memphis'
p3355
(dp3356
g3
S'memphis'
p3357
sS'w4w'
p3358
I117
sg6
g3355
sg7
S'-100.539782'
p3359
sS'm4w'
p3360
I404
sg10
S'TX'
p3361
sS'm4m'
p3362
I818
sg13
S'34.730964'
p3363
sS'w4m'
p3364
I77
ssS'flagstaff'
p3365
(dp3366
g3
S'flagstaff'
p3367
sS'w4w'
p3368
I7
sg6
g3365
sg7
S'-112.052427'
p3369
sS'm4w'
p3370
I56
sg10
S'AZ'
p3371
sS'm4m'
p3372
I80
sg13
S'35.630842'
p3373
sS'w4m'
p3374
I14
ssS'st cloud'
p3375
(dp3376
S'w4m'
p3377
I37
sg6
g3375
sS'w4w'
p3378
I43
sS'm4w'
p3379
I111
sS'm4m'
p3380
I22
ssS'fort collins'
p3381
(dp3382
g3
S'fort collins'
p3383
sS'w4w'
p3384
I30
sg6
g3381
sg7
S'-105.569245'
p3385
sS'm4w'
p3386
I277
sg10
S'CO'
p3387
sS'm4m'
p3388
I101
sg13
S'40.628112'
p3389
sS'w4m'
p3390
I60
ssS'santa fe'
p3391
(dp3392
g3
S'santa'
p3393
sS'w4w'
p3394
I38
sg6
g3391
sg7
S'-116.430997'
p3395
sS'm4w'
p3396
I38
sg10
S'ID'
p3397
sS'm4m'
p3398
I191
sg13
S'47.154416'
p3399
sS'w4m'
p3400
I0
ssS'tucson'
p3401
(dp3402
g3
S'tucson'
p3403
sS'w4w'
p3404
I49
sg6
g3401
sg7
S'-110.859106'
p3405
sS'm4w'
p3406
I480
sg10
S'AZ'
p3407
sS'm4m'
p3408
I372
sg13
S'32.071764'
p3409
sS'w4m'
p3410
I77
ssS'st joseph'
p3411
(dp3412
S'm4w'
p3413
I37
sg6
g3411
sS'm4m'
p3414
I20
sS'w4m'
p3415
I12
sS'w4w'
p3416
I51
ssS'north MS'
p3417
(dp3418
g3
S'north'
p3419
sS'w4w'
p3420
I38
sg6
g3417
sg7
S'-81.07622'
p3421
sS'm4w'
p3422
I112
sg10
S'SC'
p3423
sS'm4m'
p3424
I73
sg13
S'33.554183'
p3425
sS'w4m'
p3426
I40
ssS'san marcos'
p3427
(dp3428
g3
S'san marcos'
p3429
sS'w4w'
p3430
I0
sg6
g3427
sg7
S'-116.846046'
p3431
sS'm4w'
p3432
I37
sg10
S'CA'
p3433
sS'm4m'
p3434
I38
sg13
S'33.016928'
p3435
sS'w4m'
p3436
I0
ssS'ogden'
p3437
(dp3438
g3
S'ogden'
p3439
sS'w4w'
p3440
I40
sg6
g3437
sg7
S'-111.956721'
p3441
sS'm4w'
p3442
I39
sg10
S'UT'
p3443
sS'm4m'
p3444
I80
sg13
S'41.255285'
p3445
sS'w4m'
p3446
I0
ssS'frederick'
p3447
(dp3448
g3
S'frederick'
p3449
sS'w4w'
p3450
I4
sg6
g3447
sg7
S'-104.938057'
p3451
sS'm4w'
p3452
I78
sg10
S'CO'
p3453
sS'm4m'
p3454
I52
sg13
S'40.123557'
p3455
sS'w4m'
p3456
I23
ssS'janesville'
p3457
(dp3458
g3
S'janesville'
p3459
sS'w4w'
p3460
I7
sg6
g3457
sg7
S'-120.506184'
p3461
sS'm4w'
p3462
I67
sg10
S'CA'
p3463
sS'm4m'
p3464
I30
sg13
S'40.298255'
p3465
sS'w4m'
p3466
I14
ssS'little rock'
p3467
(dp3468
g3
S'little rock'
p3469
sS'w4w'
p3470
I39
sg6
g3467
sg7
S'-92.392487'
p3471
sS'm4w'
p3472
I333
sg10
S'AR'
p3473
sS'm4m'
p3474
I253
sg13
S'34.751918'
p3475
sS'w4m'
p3476
I75
ssS'minneapolis'
p3477
(dp3478
g3
S'minneapolis'
p3479
sS'w4w'
p3480
I74
sg6
g3477
sg7
S'-97.650674'
p3481
sS'm4w'
p3482
I1743
sg10
S'KS'
p3483
sS'm4m'
p3484
I3998
sg13
S'39.141097'
p3485
sS'w4m'
p3486
I262
ssS'salem'
p3487
(dp3488
g3
S'salem'
p3489
sS'w4w'
p3490
I0
sg6
g3487
sg7
S'-123.006606'
p3491
sS'm4w'
p3492
I153
sg10
S'OR'
p3493
sS'm4m'
p3494
I38
sg13
S'44.965541'
p3495
sS'w4m'
p3496
I0
ssS'portland'
p3497
(dp3498
g3
S'portland'
p3499
sS'w4w'
p3500
I0
sg6
g3497
sg7
S'-122.374776'
p3501
sS'm4w'
p3502
I145
sg10
S'OR'
p3503
sS'm4m'
p3504
I255
sg13
S'45.580557'
p3505
sS'w4m'
p3506
I39
ssS'florence, SC'
p3507
(dp3508
g3
S'florence'
p3509
sS'w4w'
p3510
I11
sg6
g3507
sg7
S'-79.622227'
p3511
sS'm4w'
p3512
I43
sg10
S'SC'
p3513
sS'm4m'
p3514
I32
sg13
S'34.061465'
p3515
sS'w4m'
p3516
I21
ssS'allentown'
p3517
(dp3518
g3
S'allentown'
p3519
sS'w4w'
p3520
I11
sg6
g3517
sg7
S'-83.20951'
p3521
sS'm4w'
p3522
I340
sg10
S'GA'
p3523
sS'm4m'
p3524
I240
sg13
S'32.606433'
p3525
sS'w4m'
p3526
I61
ssS'mendocino co'
p3527
(dp3528
g3
S'mendocino'
p3529
sS'w4w'
p3530
I34
sg6
g3527
sg7
S'-123.734377'
p3531
sS'm4w'
p3532
I0
sg10
S'CA'
p3533
sS'm4m'
p3534
I0
sg13
S'39.319949'
p3535
sS'w4m'
p3536
I0
ssS'clarksville, TN'
p3537
(dp3538
g3
S'clarksville'
p3539
sS'w4w'
p3540
I28
sg6
g3537
sg7
S'-87.353008'
p3541
sS'm4w'
p3542
I128
sg10
S'TN'
p3543
sS'm4m'
p3544
I32
sg13
S'36.531398'
p3545
sS'w4m'
p3546
I88
ssS'potsdam'
p3547
(dp3548
g3
S'potsdam'
p3549
sS'w4w'
p3550
I34
sg6
g3547
sg7
S'-84.414484'
p3551
sS'm4w'
p3552
I0
sg10
S'OH'
p3553
sS'm4m'
p3554
I0
sg13
S'39.963492'
p3555
sS'w4m'
p3556
I0
ssS'twin tiers'
p3557
(dp3558
S'm4w'
p3559
I25
sg6
g3557
sS'w4w'
p3560
I73
sS'w4m'
p3561
I9
sS'm4m'
p3562
I7
ssS'monroe, MI'
p3563
(dp3564
g3
S'monroe'
p3565
sS'w4w'
p3566
I0
sg6
g3563
sg7
S'-83.444773'
p3567
sS'm4w'
p3568
I0
sg10
S'MI'
p3569
sS'm4m'
p3570
I0
sg13
S'41.929341'
p3571
sS'w4m'
p3572
I0
ssS'san antonio'
p3573
(dp3574
g3
S'san antonio'
p3575
sS'w4w'
p3576
I148
sg6
g3573
sg7
S'-106.876440'
p3577
sS'm4w'
p3578
I1259
sg10
S'NM'
p3579
sS'm4m'
p3580
I3556
sg13
S'33.963287'
p3581
sS'w4m'
p3582
I338
ssS'phoenix'
p3583
(dp3584
g3
S'phoenix'
p3585
sS'w4w'
p3586
I230
sg6
g3583
sg7
S'-122.814640'
p3587
sS'm4w'
p3588
I2611
sg10
S'OR'
p3589
sS'm4m'
p3590
I6392
sg13
S'42.262556'
p3591
sS'w4m'
p3592
I461
ssS'st george'
p3593
(dp3594
S'm4w'
p3595
I58
sg6
g3593
sS'w4w'
p3596
I4
sS'w4m'
p3597
I14
sS'm4m'
p3598
I100
ssS'dubuque'
p3599
(dp3600
g3
S'dubuque'
p3601
sS'w4w'
p3602
I64
sg6
g3599
sg7
S'-90.804116'
p3603
sS'm4w'
p3604
I38
sg10
S'IA'
p3605
sS'm4m'
p3606
I10
sg13
S'42.484861'
p3607
sS'w4m'
p3608
I14
ssS'florida keys'
p3609
(dp3610
S'm4w'
p3611
I48
sg6
g3609
sS'w4w'
p3612
I4
sS'w4m'
p3613
I16
sS'm4m'
p3614
I34
ssS'kenai'
p3615
(dp3616
g3
S'kenai'
p3617
sS'w4w'
p3618
I22
sg6
g3615
sg7
S'-150.407958'
p3619
sS'm4w'
p3620
I20
sg10
S'AK'
p3621
sS'm4m'
p3622
I41
sg13
S'60.422041'
p3623
sS'w4m'
p3624
I60
ssS'scranton'
p3625
(dp3626
g3
S'scranton'
p3627
sS'w4w'
p3628
I38
sg6
g3625
sg7
S'-93.53721'
p3629
sS'm4w'
p3630
I148
sg10
S'AR'
p3631
sS'm4m'
p3632
I219
sg13
S'35.344745'
p3633
sS'w4m'
p3634
I39
ssS'lakeland'
p3635
(dp3636
g3
S'lakeland'
p3637
sS'w4w'
p3638
I17
sg6
g3635
sg7
S'-91.446813'
p3639
sS'm4w'
p3640
I139
sg10
S'LA'
p3641
sS'm4m'
p3642
I71
sg13
S'30.575993'
p3643
sS'w4m'
p3644
I45
ssS'watertown'
p3645
(dp3646
g3
S'watertown'
p3647
sS'w4w'
p3648
I41
sg6
g3645
sg7
S'-97.177954'
p3649
sS'm4w'
p3650
I98
sg10
S'SD'
p3651
sS'm4m'
p3652
I15
sg13
S'44.955643'
p3653
sS'w4m'
p3654
I55
ssS'lafayette'
p3655
(dp3656
g3
S'lafayette'
p3657
sS'w4w'
p3658
I48
sg6
g3655
sg7
S'-123.110948'
p3659
sS'm4w'
p3660
I107
sg10
S'OR'
p3661
sS'm4m'
p3662
I87
sg13
S'45.232882'
p3663
sS'w4m'
p3664
I45
ssS'boone'
p3665
(dp3666
g3
S'boone'
p3667
sS'w4w'
p3668
I26
sg6
g3665
sg7
S'-104.209119'
p3669
sS'm4w'
p3670
I22
sg10
S'CO'
p3671
sS'm4m'
p3672
I25
sg13
S'38.319575'
p3673
sS'w4m'
p3674
I15
ssS'buffalo'
p3675
(dp3676
g3
S'buffalo'
p3677
sS'w4w'
p3678
I50
sg6
g3675
sg7
S'-106.561068'
p3679
sS'm4w'
p3680
I464
sg10
S'WY'
p3681
sS'm4m'
p3682
I672
sg13
S'44.122611'
p3683
sS'w4m'
p3684
I94
ssS'santa barbara'
p3685
(dp3686
g3
S'santa barbara'
p3687
sS'w4w'
p3688
I0
sg6
g3685
sg7
S'-119.848555'
p3689
sS'm4w'
p3690
I138
sg10
S'CA'
p3691
sS'm4m'
p3692
I501
sg13
S'34.262834'
p3693
sS'w4m'
p3694
I35
ss.